(dp0
S'p_cl_p'
p1
(lp2
(S'./lab/chilean_n0008.lab'
p3
ccopy_reg
_reconstructor
p4
(cset_diphone_library
Diphone
p5
c__builtin__
object
p6
Ntp7
Rp8
(dp9
S'c_diphone'
p10
S'p_cl'
p11
sS'n_seconds'
p12
S'4.572'
p13
sS'c_seconds'
p14
S'4.502'
p15
sS'n_diphone'
p16
S'p'
p17
sS'filename'
p18
g3
sbtp19
a(g3
g4
(g5
g6
Ntp20
Rp21
(dp22
g10
S'p_cl'
p23
sg12
S'5.578'
p24
sg14
S'5.498'
p25
sg16
g17
sg18
g3
sbtp26
a(g3
g4
(g5
g6
Ntp27
Rp28
(dp29
g10
S'p_cl'
p30
sg12
S'7.414'
p31
sg14
S'7.366'
p32
sg16
g17
sg18
g3
sbtp33
a(S'./lab/chilean_n0004.lab'
p34
g4
(g5
g6
Ntp35
Rp36
(dp37
g10
S'p_cl'
p38
sg12
S'3.402'
p39
sg14
S'3.326'
p40
sg16
g17
sg18
g34
sbtp41
a(g34
g4
(g5
g6
Ntp42
Rp43
(dp44
g10
S'p_cl'
p45
sg12
S'9.688'
p46
sg14
S'9.634'
p47
sg16
g17
sg18
g34
sbtp48
a(g34
g4
(g5
g6
Ntp49
Rp50
(dp51
g10
S'p_cl'
p52
sg12
S'10.508'
p53
sg14
S'10.442'
p54
sg16
g17
sg18
g34
sbtp55
a(S'./lab/chilean_n0010.lab'
p56
g4
(g5
g6
Ntp57
Rp58
(dp59
g10
S'p_cl'
p60
sg12
S'2.412'
p61
sg14
S'2.324'
p62
sg16
g17
sg18
g56
sbtp63
a(g56
g4
(g5
g6
Ntp64
Rp65
(dp66
g10
S'p_cl'
p67
sg12
S'2.918'
p68
sg14
S'2.862'
p69
sg16
g17
sg18
g56
sbtp70
a(S'./lab/chilean_n0005.lab'
p71
g4
(g5
g6
Ntp72
Rp73
(dp74
g10
S'p_cl'
p75
sg12
S'2.164'
p76
sg14
S'2.12'
p77
sg16
g17
sg18
g71
sbtp78
a(g71
g4
(g5
g6
Ntp79
Rp80
(dp81
g10
S'p_cl'
p82
sg12
S'2.88'
p83
sg14
S'2.762'
p84
sg16
g17
sg18
g71
sbtp85
a(g71
g4
(g5
g6
Ntp86
Rp87
(dp88
g10
S'p_cl'
p89
sg12
S'4.334'
p90
sg14
S'4.246'
p91
sg16
g17
sg18
g71
sbtp92
a(S'./lab/chilean_n0007.lab'
p93
g4
(g5
g6
Ntp94
Rp95
(dp96
g10
S'p_cl'
p97
sg12
S'2.252'
p98
sg14
S'2.202'
p99
sg16
g17
sg18
g93
sbtp100
a(g93
g4
(g5
g6
Ntp101
Rp102
(dp103
g10
S'p_cl'
p104
sg12
S'2.404'
p105
sg14
S'2.354'
p106
sg16
g17
sg18
g93
sbtp107
a(g93
g4
(g5
g6
Ntp108
Rp109
(dp110
g10
S'p_cl'
p111
sg12
S'2.676'
p112
sg14
S'2.628'
p113
sg16
g17
sg18
g93
sbtp114
a(g93
g4
(g5
g6
Ntp115
Rp116
(dp117
g10
S'p_cl'
p118
sg12
S'5.774'
p119
sg14
S'5.754'
p120
sg16
g17
sg18
g93
sbtp121
a(S'./lab/chilean_n0006.lab'
p122
g4
(g5
g6
Ntp123
Rp124
(dp125
g10
S'p_cl'
p126
sg12
S'2.488'
p127
sg14
S'2.36'
p128
sg16
g17
sg18
g122
sbtp129
a(g122
g4
(g5
g6
Ntp130
Rp131
(dp132
g10
S'p_cl'
p133
sg12
S'2.904'
p134
sg14
S'2.83'
p135
sg16
g17
sg18
g122
sbtp136
a(g122
g4
(g5
g6
Ntp137
Rp138
(dp139
g10
S'p_cl'
p140
sg12
S'3.582'
p141
sg14
S'3.518'
p142
sg16
g17
sg18
g122
sbtp143
a(g122
g4
(g5
g6
Ntp144
Rp145
(dp146
g10
S'p_cl'
p147
sg12
S'4.518'
p148
sg14
S'4.366'
p149
sg16
g17
sg18
g122
sbtp150
a(g122
g4
(g5
g6
Ntp151
Rp152
(dp153
g10
S'p_cl'
p154
sg12
S'5.032'
p155
sg14
S'4.938'
p156
sg16
g17
sg18
g122
sbtp157
a(g122
g4
(g5
g6
Ntp158
Rp159
(dp160
g10
S'p_cl'
p161
sg12
S'7.256'
p162
sg14
S'7.214'
p163
sg16
g17
sg18
g122
sbtp164
a(g122
g4
(g5
g6
Ntp165
Rp166
(dp167
g10
S'p_cl'
p168
sg12
S'9.956'
p169
sg14
S'9.89'
p170
sg16
g17
sg18
g122
sbtp171
a(g122
g4
(g5
g6
Ntp172
Rp173
(dp174
g10
S'p_cl'
p175
sg12
S'11.232'
p176
sg14
S'11.164'
p177
sg16
g17
sg18
g122
sbtp178
a(g122
g4
(g5
g6
Ntp179
Rp180
(dp181
g10
S'p_cl'
p182
sg12
S'11.724'
p183
sg14
S'11.672'
p184
sg16
g17
sg18
g122
sbtp185
a(S'./lab/chilean_n0002.lab'
p186
g4
(g5
g6
Ntp187
Rp188
(dp189
g10
S'p_cl'
p190
sg12
S'2.47'
p191
sg14
S'2.41'
p192
sg16
g17
sg18
g186
sbtp193
a(g186
g4
(g5
g6
Ntp194
Rp195
(dp196
g10
S'p_cl'
p197
sg12
S'4.058'
p198
sg14
S'3.926'
p199
sg16
g17
sg18
g186
sbtp200
a(g186
g4
(g5
g6
Ntp201
Rp202
(dp203
g10
S'p_cl'
p204
sg12
S'6.522'
p205
sg14
S'6.46'
p206
sg16
g17
sg18
g186
sbtp207
a(g186
g4
(g5
g6
Ntp208
Rp209
(dp210
g10
S'p_cl'
p211
sg12
S'7.11'
p212
sg14
S'7.04'
p213
sg16
g17
sg18
g186
sbtp214
a(S'./lab/chilean_n0003.lab'
p215
g4
(g5
g6
Ntp216
Rp217
(dp218
g10
S'p_cl'
p219
sg12
S'4.39'
p220
sg14
S'4.312'
p221
sg16
g17
sg18
g215
sbtp222
a(S'./lab/chilean_n0001.lab'
p223
g4
(g5
g6
Ntp224
Rp225
(dp226
g10
S'p_cl'
p227
sg12
S'3.058'
p228
sg14
S'2.996'
p229
sg16
g17
sg18
g223
sbtp230
asS'a_rA'
p231
(lp232
(g34
g4
(g5
g6
Ntp233
Rp234
(dp235
g10
S'a'
p236
sg12
S'9.754'
p237
sg14
S'9.728'
p238
sg16
S'rA'
p239
sg18
g34
sbtp240
a(g71
g4
(g5
g6
Ntp241
Rp242
(dp243
g10
g236
sg12
S'4.394'
p244
sg14
S'4.366'
p245
sg16
S'rA'
p246
sg18
g71
sbtp247
asS'i_rA'
p248
(lp249
(g3
g4
(g5
g6
Ntp250
Rp251
(dp252
g10
S'i'
p253
sg12
S'3.894'
p254
sg14
S'3.846'
p255
sg16
S'rA'
p256
sg18
g3
sbtp257
asS'bA_uS'
p258
(lp259
(g215
g4
(g5
g6
Ntp260
Rp261
(dp262
g10
S'bA'
p263
sg12
S'1.94'
p264
sg14
S'1.842'
p265
sg16
S'uS'
p266
sg18
g215
sbtp267
asS'l_iS'
p268
(lp269
(g122
g4
(g5
g6
Ntp270
Rp271
(dp272
g10
S'l'
p273
sg12
S'9.008'
p274
sg14
S'8.94'
p275
sg16
S'iS'
p276
sg18
g122
sbtp277
a(g186
g4
(g5
g6
Ntp278
Rp279
(dp280
g10
g273
sg12
S'9.192'
p281
sg14
S'9.106'
p282
sg16
S'iS'
p283
sg18
g186
sbtp284
asS'r_oS'
p285
(lp286
(g71
g4
(g5
g6
Ntp287
Rp288
(dp289
g10
S'r'
p290
sg12
S'2.688'
p291
sg14
S'2.632'
p292
sg16
S'oS'
p293
sg18
g71
sbtp294
a(g71
g4
(g5
g6
Ntp295
Rp296
(dp297
g10
g290
sg12
S'5.88'
p298
sg14
S'5.81'
p299
sg16
S'oS'
p300
sg18
g71
sbtp301
a(g223
g4
(g5
g6
Ntp302
Rp303
(dp304
g10
g290
sg12
S'4.372'
p305
sg14
S'4.316'
p306
sg16
S'oS'
p307
sg18
g223
sbtp308
asS'oS_t_cl'
p309
(lp310
(g71
g4
(g5
g6
Ntp311
Rp312
(dp313
g10
S'oS'
p314
sg12
S'5.16'
p315
sg14
S'5.124'
p316
sg16
S't_cl'
p317
sg18
g71
sbtp318
a(g215
g4
(g5
g6
Ntp319
Rp320
(dp321
g10
S'oS'
p322
sg12
S'8.488'
p323
sg14
S'8.456'
p324
sg16
S't_cl'
p325
sg18
g215
sbtp326
asS'e_k_cl'
p327
(lp328
(g3
g4
(g5
g6
Ntp329
Rp330
(dp331
g10
S'e'
p332
sg12
S'8.36'
p333
sg14
S'8.342'
p334
sg16
S'k_cl'
p335
sg18
g3
sbtp336
a(g34
g4
(g5
g6
Ntp337
Rp338
(dp339
g10
g332
sg12
S'2.634'
p340
sg14
S'2.628'
p341
sg16
S'k_cl'
p342
sg18
g34
sbtp343
a(g56
g4
(g5
g6
Ntp344
Rp345
(dp346
g10
g332
sg12
S'2.714'
p347
sg14
S'2.654'
p348
sg16
S'k_cl'
p349
sg18
g56
sbtp350
a(g71
g4
(g5
g6
Ntp351
Rp352
(dp353
g10
g332
sg12
S'5.68'
p354
sg14
S'5.67'
p355
sg16
S'k_cl'
p356
sg18
g71
sbtp357
a(g93
g4
(g5
g6
Ntp358
Rp359
(dp360
g10
g332
sg12
S'5.896'
p361
sg14
S'5.88'
p362
sg16
S'k_cl'
p363
sg18
g93
sbtp364
a(g122
g4
(g5
g6
Ntp365
Rp366
(dp367
g10
g332
sg12
S'2.672'
p368
sg14
S'2.652'
p369
sg16
S'k_cl'
p370
sg18
g122
sbtp371
a(g122
g4
(g5
g6
Ntp372
Rp373
(dp374
g10
g332
sg12
S'3.364'
p375
sg14
S'3.346'
p376
sg16
S'k_cl'
p377
sg18
g122
sbtp378
a(g122
g4
(g5
g6
Ntp379
Rp380
(dp381
g10
g332
sg12
S'8.836'
p382
sg14
S'8.81'
p383
sg16
S'k_cl'
p384
sg18
g122
sbtp385
a(g122
g4
(g5
g6
Ntp386
Rp387
(dp388
g10
g332
sg12
S'9.74'
p389
sg14
S'9.72'
p390
sg16
S'k_cl'
p391
sg18
g122
sbtp392
a(g122
g4
(g5
g6
Ntp393
Rp394
(dp395
g10
g332
sg12
S'10.47'
p396
sg14
S'10.456'
p397
sg16
S'k_cl'
p398
sg18
g122
sbtp399
a(g186
g4
(g5
g6
Ntp400
Rp401
(dp402
g10
g332
sg12
S'2.932'
p403
sg14
S'2.882'
p404
sg16
S'k_cl'
p405
sg18
g186
sbtp406
a(g215
g4
(g5
g6
Ntp407
Rp408
(dp409
g10
g332
sg12
S'8.054'
p410
sg14
S'8.038'
p411
sg16
S'k_cl'
p412
sg18
g215
sbtp413
a(g223
g4
(g5
g6
Ntp414
Rp415
(dp416
g10
g332
sg12
S'5.76'
p417
sg14
S'5.738'
p418
sg16
S'k_cl'
p419
sg18
g223
sbtp420
asS'gA_o'
p421
(lp422
(g215
g4
(g5
g6
Ntp423
Rp424
(dp425
g10
S'gA'
p426
sg12
S'2.18'
p427
sg14
S'2.172'
p428
sg16
S'o'
p429
sg18
g215
sbtp430
asS'iS_g_cl'
p431
(lp432
(g215
g4
(g5
g6
Ntp433
Rp434
(dp435
g10
S'iS'
p436
sg12
S'5.272'
p437
sg14
S'5.262'
p438
sg16
S'g_cl'
p439
sg18
g215
sbtp440
asS'gA_a'
p441
(lp442
(g56
g4
(g5
g6
Ntp443
Rp444
(dp445
g10
S'gA'
p446
sg12
S'4.062'
p447
sg14
S'4.018'
p448
sg16
g236
sg18
g56
sbtp449
a(g56
g4
(g5
g6
Ntp450
Rp451
(dp452
g10
S'gA'
p453
sg12
S'10.492'
p454
sg14
S'10.294'
p455
sg16
g236
sg18
g56
sbtp456
a(g56
g4
(g5
g6
Ntp457
Rp458
(dp459
g10
S'gA'
p460
sg12
S'13.064'
p461
sg14
S'13.058'
p462
sg16
g236
sg18
g56
sbtp463
a(g223
g4
(g5
g6
Ntp464
Rp465
(dp466
g10
S'gA'
p467
sg12
S'4.068'
p468
sg14
S'3.906'
p469
sg16
g236
sg18
g223
sbtp470
asS'ch_cl_ch'
p471
(lp472
(g3
g4
(g5
g6
Ntp473
Rp474
(dp475
g10
S'ch_cl'
p476
sg12
S'1.982'
p477
sg14
S'1.904'
p478
sg16
S'ch'
p479
sg18
g3
sbtp480
a(g34
g4
(g5
g6
Ntp481
Rp482
(dp483
g10
S'ch_cl'
p484
sg12
S'10.978'
p485
sg14
S'10.828'
p486
sg16
S'ch'
p487
sg18
g34
sbtp488
a(g186
g4
(g5
g6
Ntp489
Rp490
(dp491
g10
S'ch_cl'
p492
sg12
S'8.188'
p493
sg14
S'8.022'
p494
sg16
S'ch'
p495
sg18
g186
sbtp496
asS'sp_bA'
p497
(lp498
(g3
g4
(g5
g6
Ntp499
Rp500
(dp501
g10
S'sp'
p502
sg12
S'3.65'
p503
sg14
S'3.598'
p504
sg16
S'bA'
p505
sg18
g3
sbtp506
a(g34
g4
(g5
g6
Ntp507
Rp508
(dp509
g10
S'sp'
p510
sg12
S'3.014'
p511
sg14
S'2.906'
p512
sg16
S'bA'
p513
sg18
g34
sbtp514
a(g34
g4
(g5
g6
Ntp515
Rp516
(dp517
g10
S'sp'
p518
sg12
S'9.028'
p519
sg14
S'9.022'
p520
sg16
S'bA'
p521
sg18
g34
sbtp522
a(g93
g4
(g5
g6
Ntp523
Rp524
(dp525
g10
S'sp'
p526
sg12
S'4.204'
p527
sg14
S'4.156'
p528
sg16
S'bA'
p529
sg18
g93
sbtp530
asS'gA_uSC'
p531
(lp532
(g186
g4
(g5
g6
Ntp533
Rp534
(dp535
g10
S'gA'
p536
sg12
S'10.528'
p537
sg14
S'10.452'
p538
sg16
S'uSC'
p539
sg18
g186
sbtp540
asS'd_o'
p541
(lp542
(g34
g4
(g5
g6
Ntp543
Rp544
(dp545
g10
S'd'
p546
sg12
S'9.362'
p547
sg14
S'9.318'
p548
sg16
g429
sg18
g34
sbtp549
a(g56
g4
(g5
g6
Ntp550
Rp551
(dp552
g10
g546
sg12
S'8.692'
p553
sg14
S'8.67'
p554
sg16
g429
sg18
g56
sbtp555
a(g186
g4
(g5
g6
Ntp556
Rp557
(dp558
g10
g546
sg12
S'6.084'
p559
sg14
S'6.052'
p560
sg16
g429
sg18
g186
sbtp561
asS'gA_u'
p562
(lp563
(g186
g4
(g5
g6
Ntp564
Rp565
(dp566
g10
S'gA'
p567
sg12
S'11.788'
p568
sg14
S'11.714'
p569
sg16
S'u'
p570
sg18
g186
sbtp571
asS'd_a'
p572
(lp573
(g56
g4
(g5
g6
Ntp574
Rp575
(dp576
g10
g546
sg12
S'9.174'
p577
sg14
S'9.126'
p578
sg16
g236
sg18
g56
sbtp579
asS'gA_r'
p580
(lp581
(g3
g4
(g5
g6
Ntp582
Rp583
(dp584
g10
S'gA'
p585
sg12
S'4.394'
p586
sg14
S'4.388'
p587
sg16
g290
sg18
g3
sbtp588
asS'p_o'
p589
(lp590
(g3
g4
(g5
g6
Ntp591
Rp592
(dp593
g10
g17
sg12
S'4.616'
p594
sg14
S'4.572'
p595
sg16
g429
sg18
g3
sbtp596
a(g34
g4
(g5
g6
Ntp597
Rp598
(dp599
g10
g17
sg12
S'10.54'
p600
sg14
S'10.508'
p601
sg16
g429
sg18
g34
sbtp602
a(g56
g4
(g5
g6
Ntp603
Rp604
(dp605
g10
g17
sg12
S'3.018'
p606
sg14
S'2.918'
p607
sg16
g429
sg18
g56
sbtp608
a(g93
g4
(g5
g6
Ntp609
Rp610
(dp611
g10
g17
sg12
S'2.706'
p612
sg14
S'2.676'
p613
sg16
g429
sg18
g93
sbtp614
a(g93
g4
(g5
g6
Ntp615
Rp616
(dp617
g10
g17
sg12
S'5.798'
p618
sg14
S'5.774'
p619
sg16
g429
sg18
g93
sbtp620
a(g122
g4
(g5
g6
Ntp621
Rp622
(dp623
g10
g17
sg12
S'11.318'
p624
sg14
S'11.232'
p625
sg16
g429
sg18
g122
sbtp626
a(g186
g4
(g5
g6
Ntp627
Rp628
(dp629
g10
g17
sg12
S'6.558'
p630
sg14
S'6.522'
p631
sg16
g429
sg18
g186
sbtp632
asS'p_l'
p633
(lp634
(g34
g4
(g5
g6
Ntp635
Rp636
(dp637
g10
g17
sg12
S'3.43'
p638
sg14
S'3.402'
p639
sg16
g273
sg18
g34
sbtp640
a(g186
g4
(g5
g6
Ntp641
Rp642
(dp643
g10
g17
sg12
S'4.078'
p644
sg14
S'4.058'
p645
sg16
g273
sg18
g186
sbtp646
a(g186
g4
(g5
g6
Ntp647
Rp648
(dp649
g10
g17
sg12
S'7.15'
p650
sg14
S'7.11'
p651
sg16
g273
sg18
g186
sbtp652
asS'e_ny'
p653
(lp654
(g3
g4
(g5
g6
Ntp655
Rp656
(dp657
g10
g332
sg12
S'2.674'
p658
sg14
S'2.546'
p659
sg16
S'ny'
p660
sg18
g3
sbtp661
asS't_cl_t'
p662
(lp663
(g3
g4
(g5
g6
Ntp664
Rp665
(dp666
g10
S't_cl'
p667
sg12
S'6.308'
p668
sg14
S'6.268'
p669
sg16
S't'
p670
sg18
g3
sbtp671
a(g3
g4
(g5
g6
Ntp672
Rp673
(dp674
g10
S't_cl'
p675
sg12
S'9.024'
p676
sg14
S'8.744'
p677
sg16
g670
sg18
g3
sbtp678
a(g3
g4
(g5
g6
Ntp679
Rp680
(dp681
g10
S't_cl'
p682
sg12
S'11.318'
p683
sg14
S'11.282'
p684
sg16
g670
sg18
g3
sbtp685
a(g3
g4
(g5
g6
Ntp686
Rp687
(dp688
g10
S't_cl'
p689
sg12
S'11.468'
p690
sg14
S'11.428'
p691
sg16
g670
sg18
g3
sbtp692
a(g34
g4
(g5
g6
Ntp693
Rp694
(dp695
g10
S't_cl'
p696
sg12
S'2.19'
p697
sg14
S'2.108'
p698
sg16
g670
sg18
g34
sbtp699
a(g34
g4
(g5
g6
Ntp700
Rp701
(dp702
g10
S't_cl'
p703
sg12
S'3.552'
p704
sg14
S'3.534'
p705
sg16
g670
sg18
g34
sbtp706
a(g34
g4
(g5
g6
Ntp707
Rp708
(dp709
g10
S't_cl'
p710
sg12
S'5.004'
p711
sg14
S'4.982'
p712
sg16
g670
sg18
g34
sbtp713
a(g34
g4
(g5
g6
Ntp714
Rp715
(dp716
g10
S't_cl'
p717
sg12
S'5.24'
p718
sg14
S'5.118'
p719
sg16
g670
sg18
g34
sbtp720
a(g34
g4
(g5
g6
Ntp721
Rp722
(dp723
g10
S't_cl'
p724
sg12
S'7.636'
p725
sg14
S'7.556'
p726
sg16
g670
sg18
g34
sbtp727
a(g34
g4
(g5
g6
Ntp728
Rp729
(dp730
g10
S't_cl'
p731
sg12
S'8.654'
p732
sg14
S'8.59'
p733
sg16
g670
sg18
g34
sbtp734
a(g34
g4
(g5
g6
Ntp735
Rp736
(dp737
g10
S't_cl'
p738
sg12
S'8.926'
p739
sg14
S'8.854'
p740
sg16
g670
sg18
g34
sbtp741
a(g34
g4
(g5
g6
Ntp742
Rp743
(dp744
g10
S't_cl'
p745
sg12
S'10.29'
p746
sg14
S'10.184'
p747
sg16
g670
sg18
g34
sbtp748
a(g56
g4
(g5
g6
Ntp749
Rp750
(dp751
g10
S't_cl'
p752
sg12
S'5.418'
p753
sg14
S'5.37'
p754
sg16
g670
sg18
g56
sbtp755
a(g56
g4
(g5
g6
Ntp756
Rp757
(dp758
g10
S't_cl'
p759
sg12
S'5.828'
p760
sg14
S'5.81'
p761
sg16
g670
sg18
g56
sbtp762
a(g56
g4
(g5
g6
Ntp763
Rp764
(dp765
g10
S't_cl'
p766
sg12
S'7.104'
p767
sg14
S'7.02'
p768
sg16
g670
sg18
g56
sbtp769
a(g56
g4
(g5
g6
Ntp770
Rp771
(dp772
g10
S't_cl'
p773
sg12
S'7.64'
p774
sg14
S'7.616'
p775
sg16
g670
sg18
g56
sbtp776
a(g56
g4
(g5
g6
Ntp777
Rp778
(dp779
g10
S't_cl'
p780
sg12
S'7.814'
p781
sg14
S'7.732'
p782
sg16
g670
sg18
g56
sbtp783
a(g56
g4
(g5
g6
Ntp784
Rp785
(dp786
g10
S't_cl'
p787
sg12
S'8.04'
p788
sg14
S'7.992'
p789
sg16
g670
sg18
g56
sbtp790
a(g56
g4
(g5
g6
Ntp791
Rp792
(dp793
g10
S't_cl'
p794
sg12
S'8.252'
p795
sg14
S'8.168'
p796
sg16
g670
sg18
g56
sbtp797
a(g56
g4
(g5
g6
Ntp798
Rp799
(dp800
g10
S't_cl'
p801
sg12
S'12.08'
p802
sg14
S'11.996'
p803
sg16
g670
sg18
g56
sbtp804
a(g56
g4
(g5
g6
Ntp805
Rp806
(dp807
g10
S't_cl'
p808
sg12
S'13.692'
p809
sg14
S'13.686'
p810
sg16
g670
sg18
g56
sbtp811
a(g71
g4
(g5
g6
Ntp812
Rp813
(dp814
g10
S't_cl'
p815
sg12
S'3.568'
p816
sg14
S'3.476'
p817
sg16
g670
sg18
g71
sbtp818
a(g71
g4
(g5
g6
Ntp819
Rp820
(dp821
g10
S't_cl'
p822
sg12
S'4.15'
p823
sg14
S'4.132'
p824
sg16
g670
sg18
g71
sbtp825
a(g71
g4
(g5
g6
Ntp826
Rp827
(dp828
g10
S't_cl'
p829
sg12
S'5.184'
p830
sg14
S'5.16'
p831
sg16
g670
sg18
g71
sbtp832
a(g93
g4
(g5
g6
Ntp833
Rp834
(dp835
g10
S't_cl'
p836
sg12
S'2.588'
p837
sg14
S'2.514'
p838
sg16
g670
sg18
g93
sbtp839
a(g93
g4
(g5
g6
Ntp840
Rp841
(dp842
g10
S't_cl'
p843
sg12
S'6.044'
p844
sg14
S'6.006'
p845
sg16
g670
sg18
g93
sbtp846
a(g93
g4
(g5
g6
Ntp847
Rp848
(dp849
g10
S't_cl'
p850
sg12
S'6.756'
p851
sg14
S'6.692'
p852
sg16
g670
sg18
g93
sbtp853
a(g93
g4
(g5
g6
Ntp854
Rp855
(dp856
g10
S't_cl'
p857
sg12
S'6.946'
p858
sg14
S'6.916'
p859
sg16
g670
sg18
g93
sbtp860
a(g122
g4
(g5
g6
Ntp861
Rp862
(dp863
g10
S't_cl'
p864
sg12
S'4.662'
p865
sg14
S'4.642'
p866
sg16
g670
sg18
g122
sbtp867
a(g122
g4
(g5
g6
Ntp868
Rp869
(dp870
g10
S't_cl'
p871
sg12
S'5.196'
p872
sg14
S'5.14'
p873
sg16
g670
sg18
g122
sbtp874
a(g122
g4
(g5
g6
Ntp875
Rp876
(dp877
g10
S't_cl'
p878
sg12
S'6.664'
p879
sg14
S'6.536'
p880
sg16
g670
sg18
g122
sbtp881
a(g122
g4
(g5
g6
Ntp882
Rp883
(dp884
g10
S't_cl'
p885
sg12
S'7.97'
p886
sg14
S'7.932'
p887
sg16
g670
sg18
g122
sbtp888
a(g122
g4
(g5
g6
Ntp889
Rp890
(dp891
g10
S't_cl'
p892
sg12
S'9.682'
p893
sg14
S'9.644'
p894
sg16
g670
sg18
g122
sbtp895
a(g122
g4
(g5
g6
Ntp896
Rp897
(dp898
g10
S't_cl'
p899
sg12
S'10.232'
p900
sg14
S'10.198'
p901
sg16
g670
sg18
g122
sbtp902
a(g122
g4
(g5
g6
Ntp903
Rp904
(dp905
g10
S't_cl'
p906
sg12
S'11.124'
p907
sg14
S'11.046'
p908
sg16
g670
sg18
g122
sbtp909
a(g122
g4
(g5
g6
Ntp910
Rp911
(dp912
g10
S't_cl'
p913
sg12
S'11.484'
p914
sg14
S'11.428'
p915
sg16
g670
sg18
g122
sbtp916
a(g122
g4
(g5
g6
Ntp917
Rp918
(dp919
g10
S't_cl'
p920
sg12
S'11.618'
p921
sg14
S'11.582'
p922
sg16
g670
sg18
g122
sbtp923
a(g122
g4
(g5
g6
Ntp924
Rp925
(dp926
g10
S't_cl'
p927
sg12
S'11.936'
p928
sg14
S'11.856'
p929
sg16
g670
sg18
g122
sbtp930
a(g122
g4
(g5
g6
Ntp931
Rp932
(dp933
g10
S't_cl'
p934
sg12
S'12.254'
p935
sg14
S'12.128'
p936
sg16
g670
sg18
g122
sbtp937
a(g186
g4
(g5
g6
Ntp938
Rp939
(dp940
g10
S't_cl'
p941
sg12
S'2.356'
p942
sg14
S'2.282'
p943
sg16
g670
sg18
g186
sbtp944
a(g186
g4
(g5
g6
Ntp945
Rp946
(dp947
g10
S't_cl'
p948
sg12
S'3.168'
p949
sg14
S'3.098'
p950
sg16
g670
sg18
g186
sbtp951
a(g186
g4
(g5
g6
Ntp952
Rp953
(dp954
g10
S't_cl'
p955
sg12
S'3.662'
p956
sg14
S'3.622'
p957
sg16
g670
sg18
g186
sbtp958
a(g186
g4
(g5
g6
Ntp959
Rp960
(dp961
g10
S't_cl'
p962
sg12
S'4.528'
p963
sg14
S'4.492'
p964
sg16
g670
sg18
g186
sbtp965
a(g186
g4
(g5
g6
Ntp966
Rp967
(dp968
g10
S't_cl'
p969
sg12
S'6.73'
p970
sg14
S'6.642'
p971
sg16
g670
sg18
g186
sbtp972
a(g186
g4
(g5
g6
Ntp973
Rp974
(dp975
g10
S't_cl'
p976
sg12
S'6.906'
p977
sg14
S'6.862'
p978
sg16
g670
sg18
g186
sbtp979
a(g186
g4
(g5
g6
Ntp980
Rp981
(dp982
g10
S't_cl'
p983
sg12
S'7.52'
p984
sg14
S'7.482'
p985
sg16
g670
sg18
g186
sbtp986
a(g186
g4
(g5
g6
Ntp987
Rp988
(dp989
g10
S't_cl'
p990
sg12
S'10.346'
p991
sg14
S'10.268'
p992
sg16
g670
sg18
g186
sbtp993
a(g186
g4
(g5
g6
Ntp994
Rp995
(dp996
g10
S't_cl'
p997
sg12
S'12.362'
p998
sg14
S'12.3'
p999
sg16
g670
sg18
g186
sbtp1000
a(g186
g4
(g5
g6
Ntp1001
Rp1002
(dp1003
g10
S't_cl'
p1004
sg12
S'12.578'
p1005
sg14
S'12.52'
p1006
sg16
g670
sg18
g186
sbtp1007
a(g186
g4
(g5
g6
Ntp1008
Rp1009
(dp1010
g10
S't_cl'
p1011
sg12
S'13.364'
p1012
sg14
S'13.33'
p1013
sg16
g670
sg18
g186
sbtp1014
a(g186
g4
(g5
g6
Ntp1015
Rp1016
(dp1017
g10
S't_cl'
p1018
sg12
S'13.664'
p1019
sg14
S'13.654'
p1020
sg16
g670
sg18
g186
sbtp1021
a(g186
g4
(g5
g6
Ntp1022
Rp1023
(dp1024
g10
S't_cl'
p1025
sg12
S'14.108'
p1026
sg14
S'14.058'
p1027
sg16
g670
sg18
g186
sbtp1028
a(g215
g4
(g5
g6
Ntp1029
Rp1030
(dp1031
g10
S't_cl'
p1032
sg12
S'3.104'
p1033
sg14
S'3.07'
p1034
sg16
g670
sg18
g215
sbtp1035
a(g215
g4
(g5
g6
Ntp1036
Rp1037
(dp1038
g10
S't_cl'
p1039
sg12
S'3.642'
p1040
sg14
S'3.58'
p1041
sg16
g670
sg18
g215
sbtp1042
a(g215
g4
(g5
g6
Ntp1043
Rp1044
(dp1045
g10
S't_cl'
p1046
sg12
S'3.99'
p1047
sg14
S'3.918'
p1048
sg16
g670
sg18
g215
sbtp1049
a(g215
g4
(g5
g6
Ntp1050
Rp1051
(dp1052
g10
S't_cl'
p1053
sg12
S'6.444'
p1054
sg14
S'6.348'
p1055
sg16
g670
sg18
g215
sbtp1056
a(g215
g4
(g5
g6
Ntp1057
Rp1058
(dp1059
g10
S't_cl'
p1060
sg12
S'6.972'
p1061
sg14
S'6.944'
p1062
sg16
g670
sg18
g215
sbtp1063
a(g215
g4
(g5
g6
Ntp1064
Rp1065
(dp1066
g10
S't_cl'
p1067
sg12
S'8.504'
p1068
sg14
S'8.488'
p1069
sg16
g670
sg18
g215
sbtp1070
a(g223
g4
(g5
g6
Ntp1071
Rp1072
(dp1073
g10
S't_cl'
p1074
sg12
S'4.68'
p1075
sg14
S'4.586'
p1076
sg16
g670
sg18
g223
sbtp1077
a(g223
g4
(g5
g6
Ntp1078
Rp1079
(dp1080
g10
S't_cl'
p1081
sg12
S'5.396'
p1082
sg14
S'5.328'
p1083
sg16
g670
sg18
g223
sbtp1084
a(g223
g4
(g5
g6
Ntp1085
Rp1086
(dp1087
g10
S't_cl'
p1088
sg12
S'5.902'
p1089
sg14
S'5.812'
p1090
sg16
g670
sg18
g223
sbtp1091
a(g223
g4
(g5
g6
Ntp1092
Rp1093
(dp1094
g10
S't_cl'
p1095
sg12
S'6.616'
p1096
sg14
S'6.512'
p1097
sg16
g670
sg18
g223
sbtp1098
asS'p_e'
p1099
(lp1100
(g71
g4
(g5
g6
Ntp1101
Rp1102
(dp1103
g10
g17
sg12
S'2.172'
p1104
sg14
S'2.164'
p1105
sg16
g332
sg18
g71
sbtp1106
a(g122
g4
(g5
g6
Ntp1107
Rp1108
(dp1109
g10
g17
sg12
S'7.326'
p1110
sg14
S'7.256'
p1111
sg16
g332
sg18
g122
sbtp1112
a(g215
g4
(g5
g6
Ntp1113
Rp1114
(dp1115
g10
g17
sg12
S'4.422'
p1116
sg14
S'4.39'
p1117
sg16
g332
sg18
g215
sbtp1118
asS'i_eS'
p1119
(lp1120
(g3
g4
(g5
g6
Ntp1121
Rp1122
(dp1123
g10
g253
sg12
S'9.172'
p1124
sg14
S'9.106'
p1125
sg16
S'eS'
p1126
sg18
g3
sbtp1127
a(g56
g4
(g5
g6
Ntp1128
Rp1129
(dp1130
g10
g253
sg12
S'5.3'
p1131
sg14
S'5.29'
p1132
sg16
S'eS'
p1133
sg18
g56
sbtp1134
a(g56
g4
(g5
g6
Ntp1135
Rp1136
(dp1137
g10
g253
sg12
S'7.554'
p1138
sg14
S'7.542'
p1139
sg16
S'eS'
p1140
sg18
g56
sbtp1141
a(g186
g4
(g5
g6
Ntp1142
Rp1143
(dp1144
g10
g253
sg12
S'5.968'
p1145
sg14
S'5.944'
p1146
sg16
S'eS'
p1147
sg18
g186
sbtp1148
a(g186
g4
(g5
g6
Ntp1149
Rp1150
(dp1151
g10
g253
sg12
S'13.588'
p1152
sg14
S'13.552'
p1153
sg16
S'eS'
p1154
sg18
g186
sbtp1155
a(g215
g4
(g5
g6
Ntp1156
Rp1157
(dp1158
g10
g253
sg12
S'3.858'
p1159
sg14
S'3.798'
p1160
sg16
S'eS'
p1161
sg18
g215
sbtp1162
asS'p_a'
p1163
(lp1164
(g3
g4
(g5
g6
Ntp1165
Rp1166
(dp1167
g10
g17
sg12
S'7.486'
p1168
sg14
S'7.414'
p1169
sg16
g236
sg18
g3
sbtp1170
a(g34
g4
(g5
g6
Ntp1171
Rp1172
(dp1173
g10
g17
sg12
S'9.728'
p1174
sg14
S'9.688'
p1175
sg16
g236
sg18
g34
sbtp1176
a(g71
g4
(g5
g6
Ntp1177
Rp1178
(dp1179
g10
g17
sg12
S'4.366'
p1180
sg14
S'4.334'
p1181
sg16
g236
sg18
g71
sbtp1182
a(g122
g4
(g5
g6
Ntp1183
Rp1184
(dp1185
g10
g17
sg12
S'2.966'
p1186
sg14
S'2.904'
p1187
sg16
g236
sg18
g122
sbtp1188
a(g122
g4
(g5
g6
Ntp1189
Rp1190
(dp1191
g10
g17
sg12
S'5.092'
p1192
sg14
S'5.032'
p1193
sg16
g236
sg18
g122
sbtp1194
a(g122
g4
(g5
g6
Ntp1195
Rp1196
(dp1197
g10
g17
sg12
S'11.76'
p1198
sg14
S'11.724'
p1199
sg16
g236
sg18
g122
sbtp1200
a(g186
g4
(g5
g6
Ntp1201
Rp1202
(dp1203
g10
g17
sg12
S'2.552'
p1204
sg14
S'2.47'
p1205
sg16
g236
sg18
g186
sbtp1206
asS'p_u'
p1207
(lp1208
(g3
g4
(g5
g6
Ntp1209
Rp1210
(dp1211
g10
g17
sg12
S'5.646'
p1212
sg14
S'5.578'
p1213
sg16
g570
sg18
g3
sbtp1214
a(g71
g4
(g5
g6
Ntp1215
Rp1216
(dp1217
g10
g17
sg12
S'2.928'
p1218
sg14
S'2.88'
p1219
sg16
g570
sg18
g71
sbtp1220
asS'p_r'
p1221
(lp1222
(g56
g4
(g5
g6
Ntp1223
Rp1224
(dp1225
g10
g17
sg12
S'2.456'
p1226
sg14
S'2.412'
p1227
sg16
g290
sg18
g56
sbtp1228
a(g93
g4
(g5
g6
Ntp1229
Rp1230
(dp1231
g10
g17
sg12
S'2.296'
p1232
sg14
S'2.252'
p1233
sg16
g290
sg18
g93
sbtp1234
a(g122
g4
(g5
g6
Ntp1235
Rp1236
(dp1237
g10
g17
sg12
S'3.626'
p1238
sg14
S'3.582'
p1239
sg16
g290
sg18
g122
sbtp1240
a(g122
g4
(g5
g6
Ntp1241
Rp1242
(dp1243
g10
g17
sg12
S'10.004'
p1244
sg14
S'9.956'
p1245
sg16
g290
sg18
g122
sbtp1246
a(g223
g4
(g5
g6
Ntp1247
Rp1248
(dp1249
g10
g17
sg12
S'3.092'
p1250
sg14
S'3.058'
p1251
sg16
g290
sg18
g223
sbtp1252
asS'dA_aS'
p1253
(lp1254
(g56
g4
(g5
g6
Ntp1255
Rp1256
(dp1257
g10
S'dA'
p1258
sg12
S'3.448'
p1259
sg14
S'3.438'
p1260
sg16
S'aS'
p1261
sg18
g56
sbtp1262
asS'o_sp'
p1263
(lp1264
(g3
g4
(g5
g6
Ntp1265
Rp1266
(dp1267
g10
g429
sg12
S'4.616'
p1268
sg14
S'4.616'
p1269
sg16
S'sp'
p1270
sg18
g3
sbtp1271
a(g3
g4
(g5
g6
Ntp1272
Rp1273
(dp1274
g10
g429
sg12
S'5.108'
p1275
sg14
S'5.108'
p1276
sg16
S'sp'
p1277
sg18
g3
sbtp1278
a(g3
g4
(g5
g6
Ntp1279
Rp1280
(dp1281
g10
g429
sg12
S'10.136'
p1282
sg14
S'10.124'
p1283
sg16
S'sp'
p1284
sg18
g3
sbtp1285
a(g34
g4
(g5
g6
Ntp1286
Rp1287
(dp1288
g10
g429
sg12
S'2.46'
p1289
sg14
S'2.46'
p1290
sg16
S'sp'
p1291
sg18
g34
sbtp1292
a(g34
g4
(g5
g6
Ntp1293
Rp1294
(dp1295
g10
g429
sg12
S'3.91'
p1296
sg14
S'3.858'
p1297
sg16
S'sp'
p1298
sg18
g34
sbtp1299
a(g34
g4
(g5
g6
Ntp1300
Rp1301
(dp1302
g10
g429
sg12
S'8.104'
p1303
sg14
S'8.104'
p1304
sg16
S'sp'
p1305
sg18
g34
sbtp1306
a(g34
g4
(g5
g6
Ntp1307
Rp1308
(dp1309
g10
g429
sg12
S'11.24'
p1310
sg14
S'11.208'
p1311
sg16
S'sp'
p1312
sg18
g34
sbtp1313
a(g56
g4
(g5
g6
Ntp1314
Rp1315
(dp1316
g10
g429
sg12
S'3.018'
p1317
sg14
S'3.018'
p1318
sg16
S'sp'
p1319
sg18
g56
sbtp1320
a(g56
g4
(g5
g6
Ntp1321
Rp1322
(dp1323
g10
g429
sg12
S'4.758'
p1324
sg14
S'4.758'
p1325
sg16
S'sp'
p1326
sg18
g56
sbtp1327
a(g56
g4
(g5
g6
Ntp1328
Rp1329
(dp1330
g10
g429
sg12
S'5.996'
p1331
sg14
S'5.946'
p1332
sg16
S'sp'
p1333
sg18
g56
sbtp1334
a(g56
g4
(g5
g6
Ntp1335
Rp1336
(dp1337
g10
g429
sg12
S'6.856'
p1338
sg14
S'6.846'
p1339
sg16
S'sp'
p1340
sg18
g56
sbtp1341
a(g56
g4
(g5
g6
Ntp1342
Rp1343
(dp1344
g10
g429
sg12
S'8.692'
p1345
sg14
S'8.692'
p1346
sg16
S'sp'
p1347
sg18
g56
sbtp1348
a(g56
g4
(g5
g6
Ntp1349
Rp1350
(dp1351
g10
g429
sg12
S'14.862'
p1352
sg14
S'14.816'
p1353
sg16
S'sp'
p1354
sg18
g56
sbtp1355
a(g93
g4
(g5
g6
Ntp1356
Rp1357
(dp1358
g10
g429
sg12
S'6.356'
p1359
sg14
S'6.356'
p1360
sg16
S'sp'
p1361
sg18
g93
sbtp1362
a(g93
g4
(g5
g6
Ntp1363
Rp1364
(dp1365
g10
g429
sg12
S'7.164'
p1366
sg14
S'7.148'
p1367
sg16
S'sp'
p1368
sg18
g93
sbtp1369
a(g122
g4
(g5
g6
Ntp1370
Rp1371
(dp1372
g10
g429
sg12
S'2.24'
p1373
sg14
S'2.24'
p1374
sg16
S'sp'
p1375
sg18
g122
sbtp1376
a(g122
g4
(g5
g6
Ntp1377
Rp1378
(dp1379
g10
g429
sg12
S'4.694'
p1380
sg14
S'4.694'
p1381
sg16
S'sp'
p1382
sg18
g122
sbtp1383
a(g122
g4
(g5
g6
Ntp1384
Rp1385
(dp1386
g10
g429
sg12
S'7.642'
p1387
sg14
S'7.642'
p1388
sg16
S'sp'
p1389
sg18
g122
sbtp1390
a(g122
g4
(g5
g6
Ntp1391
Rp1392
(dp1393
g10
g429
sg12
S'10.578'
p1394
sg14
S'10.578'
p1395
sg16
S'sp'
p1396
sg18
g122
sbtp1397
a(g122
g4
(g5
g6
Ntp1398
Rp1399
(dp1400
g10
g429
sg12
S'11.318'
p1401
sg14
S'11.318'
p1402
sg16
S'sp'
p1403
sg18
g122
sbtp1404
a(g186
g4
(g5
g6
Ntp1405
Rp1406
(dp1407
g10
g429
sg12
S'6.09'
p1408
sg14
S'6.084'
p1409
sg16
S'sp'
p1410
sg18
g186
sbtp1411
a(g186
g4
(g5
g6
Ntp1412
Rp1413
(dp1414
g10
g429
sg12
S'8.33'
p1415
sg14
S'8.304'
p1416
sg16
S'sp'
p1417
sg18
g186
sbtp1418
a(g186
g4
(g5
g6
Ntp1419
Rp1420
(dp1421
g10
g429
sg12
S'12.932'
p1422
sg14
S'12.932'
p1423
sg16
S'sp'
p1424
sg18
g186
sbtp1425
a(g215
g4
(g5
g6
Ntp1426
Rp1427
(dp1428
g10
g429
sg12
S'2.18'
p1429
sg14
S'2.18'
p1430
sg16
S'sp'
p1431
sg18
g215
sbtp1432
a(g215
g4
(g5
g6
Ntp1433
Rp1434
(dp1435
g10
g429
sg12
S'2.656'
p1436
sg14
S'2.656'
p1437
sg16
S'sp'
p1438
sg18
g215
sbtp1439
a(g215
g4
(g5
g6
Ntp1440
Rp1441
(dp1442
g10
g429
sg12
S'4.07'
p1443
sg14
S'4.07'
p1444
sg16
S'sp'
p1445
sg18
g215
sbtp1446
a(g215
g4
(g5
g6
Ntp1447
Rp1448
(dp1449
g10
g429
sg12
S'4.92'
p1450
sg14
S'4.92'
p1451
sg16
S'sp'
p1452
sg18
g215
sbtp1453
a(g215
g4
(g5
g6
Ntp1454
Rp1455
(dp1456
g10
g429
sg12
S'5.354'
p1457
sg14
S'5.354'
p1458
sg16
S'sp'
p1459
sg18
g215
sbtp1460
a(g215
g4
(g5
g6
Ntp1461
Rp1462
(dp1463
g10
g429
sg12
S'5.742'
p1464
sg14
S'5.71'
p1465
sg16
S'sp'
p1466
sg18
g215
sbtp1467
a(g215
g4
(g5
g6
Ntp1468
Rp1469
(dp1470
g10
g429
sg12
S'6.582'
p1471
sg14
S'6.582'
p1472
sg16
S'sp'
p1473
sg18
g215
sbtp1474
a(g215
g4
(g5
g6
Ntp1475
Rp1476
(dp1477
g10
g429
sg12
S'7.558'
p1478
sg14
S'7.532'
p1479
sg16
S'sp'
p1480
sg18
g215
sbtp1481
a(g215
g4
(g5
g6
Ntp1482
Rp1483
(dp1484
g10
g429
sg12
S'7.91'
p1485
sg14
S'7.91'
p1486
sg16
S'sp'
p1487
sg18
g215
sbtp1488
a(g215
g4
(g5
g6
Ntp1489
Rp1490
(dp1491
g10
g429
sg12
S'8.98'
p1492
sg14
S'8.962'
p1493
sg16
S'sp'
p1494
sg18
g215
sbtp1495
asS'm_uS'
p1496
(lp1497
(g3
g4
(g5
g6
Ntp1498
Rp1499
(dp1500
g10
S'm'
p1501
sg12
S'1.89'
p1502
sg14
S'1.872'
p1503
sg16
S'uS'
p1504
sg18
g3
sbtp1505
asS'h_k_cl'
p1506
(lp1507
(g56
g4
(g5
g6
Ntp1508
Rp1509
(dp1510
g10
S'h'
p1511
sg12
S'5.54'
p1512
sg14
S'5.482'
p1513
sg16
S'k_cl'
p1514
sg18
g56
sbtp1515
a(g56
g4
(g5
g6
Ntp1516
Rp1517
(dp1518
g10
g1511
sg12
S'8.43'
p1519
sg14
S'8.424'
p1520
sg16
S'k_cl'
p1521
sg18
g56
sbtp1522
asS'u_gA'
p1523
(lp1524
(g3
g4
(g5
g6
Ntp1525
Rp1526
(dp1527
g10
g570
sg12
S'9.376'
p1528
sg14
S'9.33'
p1529
sg16
S'gA'
p1530
sg18
g3
sbtp1531
asS'u_ny'
p1532
(lp1533
(g71
g4
(g5
g6
Ntp1534
Rp1535
(dp1536
g10
g570
sg12
S'3.068'
p1537
sg14
S'2.928'
p1538
sg16
S'ny'
p1539
sg18
g71
sbtp1540
asS'l_k_cl'
p1541
(lp1542
(g3
g4
(g5
g6
Ntp1543
Rp1544
(dp1545
g10
g273
sg12
S'9.67'
p1546
sg14
S'9.658'
p1547
sg16
S'k_cl'
p1548
sg18
g3
sbtp1549
a(g56
g4
(g5
g6
Ntp1550
Rp1551
(dp1552
g10
g273
sg12
S'11'
p1553
sg14
S'10.99'
p1554
sg16
S'k_cl'
p1555
sg18
g56
sbtp1556
a(g215
g4
(g5
g6
Ntp1557
Rp1558
(dp1559
g10
g273
sg12
S'4.13'
p1560
sg14
S'4.114'
p1561
sg16
S'k_cl'
p1562
sg18
g215
sbtp1563
a(g215
g4
(g5
g6
Ntp1564
Rp1565
(dp1566
g10
g273
sg12
S'6.166'
p1567
sg14
S'6.156'
p1568
sg16
S'k_cl'
p1569
sg18
g215
sbtp1570
asS'sp_iSV'
p1571
(lp1572
(g122
g4
(g5
g6
Ntp1573
Rp1574
(dp1575
g10
S'sp'
p1576
sg12
S'4.76'
p1577
sg14
S'4.694'
p1578
sg16
S'iSV'
p1579
sg18
g122
sbtp1580
asS'aS_ch_cl'
p1581
(lp1582
(g186
g4
(g5
g6
Ntp1583
Rp1584
(dp1585
g10
S'aS'
p1586
sg12
S'8.022'
p1587
sg14
S'8.016'
p1588
sg16
S'ch_cl'
p1589
sg18
g186
sbtp1590
asS's_oS'
p1591
(lp1592
(g93
g4
(g5
g6
Ntp1593
Rp1594
(dp1595
g10
S's'
p1596
sg12
S'4.026'
p1597
sg14
S'3.966'
p1598
sg16
S'oS'
p1599
sg18
g93
sbtp1600
asS't_oS'
p1601
(lp1602
(g3
g4
(g5
g6
Ntp1603
Rp1604
(dp1605
g10
g670
sg12
S'6.372'
p1606
sg14
S'6.308'
p1607
sg16
S'oS'
p1608
sg18
g3
sbtp1609
a(g186
g4
(g5
g6
Ntp1610
Rp1611
(dp1612
g10
g670
sg12
S'4.578'
p1613
sg14
S'4.528'
p1614
sg16
S'oS'
p1615
sg18
g186
sbtp1616
a(g186
g4
(g5
g6
Ntp1617
Rp1618
(dp1619
g10
g670
sg12
S'7.568'
p1620
sg14
S'7.52'
p1621
sg16
S'oS'
p1622
sg18
g186
sbtp1623
a(g223
g4
(g5
g6
Ntp1624
Rp1625
(dp1626
g10
g670
sg12
S'5.91'
p1627
sg14
S'5.902'
p1628
sg16
S'oS'
p1629
sg18
g223
sbtp1630
asS'eS_dA'
p1631
(lp1632
(g56
g4
(g5
g6
Ntp1633
Rp1634
(dp1635
g10
S'eS'
p1636
sg12
S'9.714'
p1637
sg14
S'9.62'
p1638
sg16
S'dA'
p1639
sg18
g56
sbtp1640
asS'm_iS'
p1641
(lp1642
(g3
g4
(g5
g6
Ntp1643
Rp1644
(dp1645
g10
g1501
sg12
S'9.998'
p1646
sg14
S'9.904'
p1647
sg16
S'iS'
p1648
sg18
g3
sbtp1649
a(g56
g4
(g5
g6
Ntp1650
Rp1651
(dp1652
g10
g1501
sg12
S'4.926'
p1653
sg14
S'4.86'
p1654
sg16
S'iS'
p1655
sg18
g56
sbtp1656
a(g56
g4
(g5
g6
Ntp1657
Rp1658
(dp1659
g10
g1501
sg12
S'7.28'
p1660
sg14
S'7.218'
p1661
sg16
S'iS'
p1662
sg18
g56
sbtp1663
a(g122
g4
(g5
g6
Ntp1664
Rp1665
(dp1666
g10
g1501
sg12
S'6.474'
p1667
sg14
S'6.438'
p1668
sg16
S'iS'
p1669
sg18
g122
sbtp1670
a(g186
g4
(g5
g6
Ntp1671
Rp1672
(dp1673
g10
g1501
sg12
S'13.154'
p1674
sg14
S'13.118'
p1675
sg16
S'iS'
p1676
sg18
g186
sbtp1677
asS'k_iS'
p1678
(lp1679
(g56
g4
(g5
g6
Ntp1680
Rp1681
(dp1682
g10
S'k'
p1683
sg12
S'2.854'
p1684
sg14
S'2.806'
p1685
sg16
S'iS'
p1686
sg18
g56
sbtp1687
asS'sil_iSV'
p1688
(lp1689
(g186
g4
(g5
g6
Ntp1690
Rp1691
(dp1692
g10
S'sil'
p1693
sg12
S'11.52'
p1694
sg14
S'11.436'
p1695
sg16
S'iSV'
p1696
sg18
g186
sbtp1697
asS'i_t_cl'
p1698
(lp1699
(g3
g4
(g5
g6
Ntp1700
Rp1701
(dp1702
g10
g253
sg12
S'6.268'
p1703
sg14
S'6.222'
p1704
sg16
S't_cl'
p1705
sg18
g3
sbtp1706
a(g3
g4
(g5
g6
Ntp1707
Rp1708
(dp1709
g10
g253
sg12
S'11.428'
p1710
sg14
S'11.382'
p1711
sg16
S't_cl'
p1712
sg18
g3
sbtp1713
a(g56
g4
(g5
g6
Ntp1714
Rp1715
(dp1716
g10
g253
sg12
S'8.168'
p1717
sg14
S'8.118'
p1718
sg16
S't_cl'
p1719
sg18
g56
sbtp1720
a(g122
g4
(g5
g6
Ntp1721
Rp1722
(dp1723
g10
g253
sg12
S'7.932'
p1724
sg14
S'7.892'
p1725
sg16
S't_cl'
p1726
sg18
g122
sbtp1727
a(g122
g4
(g5
g6
Ntp1728
Rp1729
(dp1730
g10
g253
sg12
S'11.582'
p1731
sg14
S'11.546'
p1732
sg16
S't_cl'
p1733
sg18
g122
sbtp1734
a(g215
g4
(g5
g6
Ntp1735
Rp1736
(dp1737
g10
g253
sg12
S'6.944'
p1738
sg14
S'6.9'
p1739
sg16
S't_cl'
p1740
sg18
g215
sbtp1741
asS'eS_rA'
p1742
(lp1743
(g56
g4
(g5
g6
Ntp1744
Rp1745
(dp1746
g10
S'eS'
p1747
sg12
S'14.73'
p1748
sg14
S'14.662'
p1749
sg16
S'rA'
p1750
sg18
g56
sbtp1751
a(g122
g4
(g5
g6
Ntp1752
Rp1753
(dp1754
g10
S'eS'
p1755
sg12
S'7.81'
p1756
sg14
S'7.702'
p1757
sg16
S'rA'
p1758
sg18
g122
sbtp1759
a(g186
g4
(g5
g6
Ntp1760
Rp1761
(dp1762
g10
S'eS'
p1763
sg12
S'10.828'
p1764
sg14
S'10.786'
p1765
sg16
S'rA'
p1766
sg18
g186
sbtp1767
a(g186
g4
(g5
g6
Ntp1768
Rp1769
(dp1770
g10
S'eS'
p1771
sg12
S'12.906'
p1772
sg14
S'12.842'
p1773
sg16
S'rA'
p1774
sg18
g186
sbtp1775
a(g223
g4
(g5
g6
Ntp1776
Rp1777
(dp1778
g10
S'eS'
p1779
sg12
S'3.336'
p1780
sg14
S'3.278'
p1781
sg16
S'rA'
p1782
sg18
g223
sbtp1783
asS'e_bA'
p1784
(lp1785
(g215
g4
(g5
g6
Ntp1786
Rp1787
(dp1788
g10
g332
sg12
S'3.45'
p1789
sg14
S'3.402'
p1790
sg16
S'bA'
p1791
sg18
g215
sbtp1792
a(g223
g4
(g5
g6
Ntp1793
Rp1794
(dp1795
g10
g332
sg12
S'6.394'
p1796
sg14
S'6.388'
p1797
sg16
S'bA'
p1798
sg18
g223
sbtp1799
asS'i_n'
p1800
(lp1801
(g56
g4
(g5
g6
Ntp1802
Rp1803
(dp1804
g10
g253
sg12
S'7.936'
p1805
sg14
S'7.916'
p1806
sg16
S'n'
p1807
sg18
g56
sbtp1808
a(g71
g4
(g5
g6
Ntp1809
Rp1810
(dp1811
g10
g253
sg12
S'4.008'
p1812
sg14
S'3.926'
p1813
sg16
g1807
sg18
g71
sbtp1814
a(g71
g4
(g5
g6
Ntp1815
Rp1816
(dp1817
g10
g253
sg12
S'5.45'
p1818
sg14
S'5.382'
p1819
sg16
g1807
sg18
g71
sbtp1820
a(g93
g4
(g5
g6
Ntp1821
Rp1822
(dp1823
g10
g253
sg12
S'6.114'
p1824
sg14
S'6.086'
p1825
sg16
g1807
sg18
g93
sbtp1826
a(g122
g4
(g5
g6
Ntp1827
Rp1828
(dp1829
g10
g253
sg12
S'10.764'
p1830
sg14
S'10.758'
p1831
sg16
g1807
sg18
g122
sbtp1832
a(g186
g4
(g5
g6
Ntp1833
Rp1834
(dp1835
g10
g253
sg12
S'3.416'
p1836
sg14
S'3.37'
p1837
sg16
g1807
sg18
g186
sbtp1838
a(g215
g4
(g5
g6
Ntp1839
Rp1840
(dp1841
g10
g253
sg12
S'4.672'
p1842
sg14
S'4.61'
p1843
sg16
g1807
sg18
g215
sbtp1844
asS'i_m'
p1845
(lp1846
(g56
g4
(g5
g6
Ntp1847
Rp1848
(dp1849
g10
g253
sg12
S'2.558'
p1850
sg14
S'2.49'
p1851
sg16
g1501
sg18
g56
sbtp1852
a(g122
g4
(g5
g6
Ntp1853
Rp1854
(dp1855
g10
g253
sg12
S'4.918'
p1856
sg14
S'4.886'
p1857
sg16
g1501
sg18
g122
sbtp1858
a(g186
g4
(g5
g6
Ntp1859
Rp1860
(dp1861
g10
g253
sg12
S'6.44'
p1862
sg14
S'6.406'
p1863
sg16
g1501
sg18
g186
sbtp1864
a(g223
g4
(g5
g6
Ntp1865
Rp1866
(dp1867
g10
g253
sg12
S'3.204'
p1868
sg14
S'3.132'
p1869
sg16
g1501
sg18
g223
sbtp1870
asS'i_l'
p1871
(lp1872
(g34
g4
(g5
g6
Ntp1873
Rp1874
(dp1875
g10
g253
sg12
S'7.83'
p1876
sg14
S'7.728'
p1877
sg16
g273
sg18
g34
sbtp1878
asS'uSC_eS'
p1879
(lp1880
(g93
g4
(g5
g6
Ntp1881
Rp1882
(dp1883
g10
S'uSC'
p1884
sg12
S'2.458'
p1885
sg14
S'2.452'
p1886
sg16
S'eS'
p1887
sg18
g93
sbtp1888
asS'i_h'
p1889
(lp1890
(g3
g4
(g5
g6
Ntp1891
Rp1892
(dp1893
g10
g253
sg12
S'5.45'
p1894
sg14
S'5.32'
p1895
sg16
g1511
sg18
g3
sbtp1896
a(g93
g4
(g5
g6
Ntp1897
Rp1898
(dp1899
g10
g253
sg12
S'2.038'
p1900
sg14
S'2.012'
p1901
sg16
g1511
sg18
g93
sbtp1902
a(g93
g4
(g5
g6
Ntp1903
Rp1904
(dp1905
g10
g253
sg12
S'3.06'
p1906
sg14
S'2.98'
p1907
sg16
g1511
sg18
g93
sbtp1908
a(g186
g4
(g5
g6
Ntp1909
Rp1910
(dp1911
g10
g253
sg12
S'3.92'
p1912
sg14
S'3.914'
p1913
sg16
g1511
sg18
g186
sbtp1914
a(g186
g4
(g5
g6
Ntp1915
Rp1916
(dp1917
g10
g253
sg12
S'14.604'
p1918
sg14
S'14.476'
p1919
sg16
g1511
sg18
g186
sbtp1920
asS'i_e'
p1921
(lp1922
(g34
g4
(g5
g6
Ntp1923
Rp1924
(dp1925
g10
g253
sg12
S'8.518'
p1926
sg14
S'8.472'
p1927
sg16
g332
sg18
g34
sbtp1928
asS'i_a'
p1929
(lp1930
(g122
g4
(g5
g6
Ntp1931
Rp1932
(dp1933
g10
g253
sg12
S'5.694'
p1934
sg14
S'5.666'
p1935
sg16
g236
sg18
g122
sbtp1936
asS'i_x'
p1937
(lp1938
(g3
g4
(g5
g6
Ntp1939
Rp1940
(dp1941
g10
g253
sg12
S'4.074'
p1942
sg14
S'3.916'
p1943
sg16
S'x'
p1944
sg18
g3
sbtp1945
asS'i_s'
p1946
(lp1947
(g34
g4
(g5
g6
Ntp1948
Rp1949
(dp1950
g10
g253
sg12
S'8.46'
p1951
sg14
S'8.358'
p1952
sg16
g1596
sg18
g34
sbtp1953
a(g186
g4
(g5
g6
Ntp1954
Rp1955
(dp1956
g10
g253
sg12
S'5.008'
p1957
sg14
S'4.878'
p1958
sg16
g1596
sg18
g186
sbtp1959
asS'sp_s'
p1960
(lp1961
(g34
g4
(g5
g6
Ntp1962
Rp1963
(dp1964
g10
S'sp'
p1965
sg12
S'8.214'
p1966
sg14
S'8.104'
p1967
sg16
g1596
sg18
g34
sbtp1968
a(g34
g4
(g5
g6
Ntp1969
Rp1970
(dp1971
g10
S'sp'
p1972
sg12
S'9.922'
p1973
sg14
S'9.798'
p1974
sg16
g1596
sg18
g34
sbtp1975
a(g56
g4
(g5
g6
Ntp1976
Rp1977
(dp1978
g10
S'sp'
p1979
sg12
S'3.304'
p1980
sg14
S'3.178'
p1981
sg16
g1596
sg18
g56
sbtp1982
a(g56
g4
(g5
g6
Ntp1983
Rp1984
(dp1985
g10
S'sp'
p1986
sg12
S'8.798'
p1987
sg14
S'8.692'
p1988
sg16
g1596
sg18
g56
sbtp1989
a(g56
g4
(g5
g6
Ntp1990
Rp1991
(dp1992
g10
S'sp'
p1993
sg12
S'9.506'
p1994
sg14
S'9.368'
p1995
sg16
g1596
sg18
g56
sbtp1996
a(g93
g4
(g5
g6
Ntp1997
Rp1998
(dp1999
g10
S'sp'
p2000
sg12
S'2.864'
p2001
sg14
S'2.74'
p2002
sg16
g1596
sg18
g93
sbtp2003
a(g93
g4
(g5
g6
Ntp2004
Rp2005
(dp2006
g10
S'sp'
p2007
sg12
S'6.484'
p2008
sg14
S'6.356'
p2009
sg16
g1596
sg18
g93
sbtp2010
a(g122
g4
(g5
g6
Ntp2011
Rp2012
(dp2013
g10
S'sp'
p2014
sg12
S'4.858'
p2015
sg14
S'4.76'
p2016
sg16
g1596
sg18
g122
sbtp2017
a(g186
g4
(g5
g6
Ntp2018
Rp2019
(dp2020
g10
S'sp'
p2021
sg12
S'3.354'
p2022
sg14
S'3.222'
p2023
sg16
g1596
sg18
g186
sbtp2024
a(g186
g4
(g5
g6
Ntp2025
Rp2026
(dp2027
g10
S'sp'
p2028
sg12
S'3.86'
p2029
sg14
S'3.744'
p2030
sg16
g1596
sg18
g186
sbtp2031
a(g186
g4
(g5
g6
Ntp2032
Rp2033
(dp2034
g10
S'sp'
p2035
sg12
S'13.278'
p2036
sg14
S'13.168'
p2037
sg16
g1596
sg18
g186
sbtp2038
a(g186
g4
(g5
g6
Ntp2039
Rp2040
(dp2041
g10
S'sp'
p2042
sg12
S'13.832'
p2043
sg14
S'13.73'
p2044
sg16
g1596
sg18
g186
sbtp2045
a(g186
g4
(g5
g6
Ntp2046
Rp2047
(dp2048
g10
S'sp'
p2049
sg12
S'14.35'
p2050
sg14
S'14.202'
p2051
sg16
g1596
sg18
g186
sbtp2052
a(g215
g4
(g5
g6
Ntp2053
Rp2054
(dp2055
g10
S'sp'
p2056
sg12
S'2.956'
p2057
sg14
S'2.822'
p2058
sg16
g1596
sg18
g215
sbtp2059
a(g215
g4
(g5
g6
Ntp2060
Rp2061
(dp2062
g10
S'sp'
p2063
sg12
S'5.158'
p2064
sg14
S'5.006'
p2065
sg16
g1596
sg18
g215
sbtp2066
a(g215
g4
(g5
g6
Ntp2067
Rp2068
(dp2069
g10
S'sp'
p2070
sg12
S'6.852'
p2071
sg14
S'6.746'
p2072
sg16
g1596
sg18
g215
sbtp2073
a(g215
g4
(g5
g6
Ntp2074
Rp2075
(dp2076
g10
S'sp'
p2077
sg12
S'8.012'
p2078
sg14
S'7.91'
p2079
sg16
g1596
sg18
g215
sbtp2080
a(g223
g4
(g5
g6
Ntp2081
Rp2082
(dp2083
g10
S'sp'
p2084
sg12
S'2.962'
p2085
sg14
S'2.836'
p2086
sg16
g1596
sg18
g223
sbtp2087
a(g223
g4
(g5
g6
Ntp2088
Rp2089
(dp2090
g10
S'sp'
p2091
sg12
S'4.468'
p2092
sg14
S'4.372'
p2093
sg16
g1596
sg18
g223
sbtp2094
asS'a_p_cl'
p2095
(lp2096
(g3
g4
(g5
g6
Ntp2097
Rp2098
(dp2099
g10
g236
sg12
S'7.366'
p2100
sg14
S'7.344'
p2101
sg16
S'p_cl'
p2102
sg18
g3
sbtp2103
a(g186
g4
(g5
g6
Ntp2104
Rp2105
(dp2106
g10
g236
sg12
S'7.04'
p2107
sg14
S'7.034'
p2108
sg16
S'p_cl'
p2109
sg18
g186
sbtp2110
asS'sil_uSC'
p2111
(lp2112
(g215
g4
(g5
g6
Ntp2113
Rp2114
(dp2115
g10
S'sil'
p2116
sg12
S'1.548'
p2117
sg14
S'1.54'
p2118
sg16
S'uSC'
p2119
sg18
g215
sbtp2120
asS'sp_u'
p2121
(lp2122
(g34
g4
(g5
g6
Ntp2123
Rp2124
(dp2125
g10
S'sp'
p2126
sg12
S'10.608'
p2127
sg14
S'10.58'
p2128
sg16
g570
sg18
g34
sbtp2129
asS'i_aS'
p2130
(lp2131
(g186
g4
(g5
g6
Ntp2132
Rp2133
(dp2134
g10
g253
sg12
S'5.102'
p2135
sg14
S'5.058'
p2136
sg16
S'aS'
p2137
sg18
g186
sbtp2138
a(g215
g4
(g5
g6
Ntp2139
Rp2140
(dp2141
g10
g253
sg12
S'7.272'
p2142
sg14
S'7.084'
p2143
sg16
S'aS'
p2144
sg18
g215
sbtp2145
asS't_uSC'
p2146
(lp2147
(g56
g4
(g5
g6
Ntp2148
Rp2149
(dp2150
g10
g670
sg12
S'12.168'
p2151
sg14
S'12.08'
p2152
sg16
S'uSC'
p2153
sg18
g56
sbtp2154
a(g122
g4
(g5
g6
Ntp2155
Rp2156
(dp2157
g10
g670
sg12
S'8.048'
p2158
sg14
S'7.97'
p2159
sg16
S'uSC'
p2160
sg18
g122
sbtp2161
asS'sp_sil'
p2162
(lp2163
(g3
g4
(g5
g6
Ntp2164
Rp2165
(dp2166
g10
S'sp'
p2167
sg12
S'6.158'
p2168
sg14
S'5.86'
p2169
sg16
S'sil'
p2170
sg18
g3
sbtp2171
a(g3
g4
(g5
g6
Ntp2172
Rp2173
(dp2174
g10
S'sp'
p2175
sg12
S'10.688'
p2176
sg14
S'10.136'
p2177
sg16
S'sil'
p2178
sg18
g3
sbtp2179
a(g3
g4
(g5
g6
Ntp2180
Rp2181
(dp2182
g10
S'sp'
p2183
sg12
S'12.8160001'
p2184
sg14
S'11.802'
p2185
sg16
S'sil'
p2186
sg18
g3
sbtp2187
a(g34
g4
(g5
g6
Ntp2188
Rp2189
(dp2190
g10
S'sp'
p2191
sg12
S'4.264'
p2192
sg14
S'3.91'
p2193
sg16
S'sil'
p2194
sg18
g34
sbtp2195
a(g34
g4
(g5
g6
Ntp2196
Rp2197
(dp2198
g10
S'sp'
p2199
sg12
S'6.35'
p2200
sg14
S'5.944'
p2201
sg16
S'sil'
p2202
sg18
g34
sbtp2203
a(g34
g4
(g5
g6
Ntp2204
Rp2205
(dp2206
g10
S'sp'
p2207
sg12
S'7.302'
p2208
sg14
S'7.01'
p2209
sg16
S'sil'
p2210
sg18
g34
sbtp2211
a(g34
g4
(g5
g6
Ntp2212
Rp2213
(dp2214
g10
S'sp'
p2215
sg12
S'13.03'
p2216
sg14
S'11.24'
p2217
sg16
S'sil'
p2218
sg18
g34
sbtp2219
a(g56
g4
(g5
g6
Ntp2220
Rp2221
(dp2222
g10
S'sp'
p2223
sg12
S'6.738'
p2224
sg14
S'5.996'
p2225
sg16
S'sil'
p2226
sg18
g56
sbtp2227
a(g56
g4
(g5
g6
Ntp2228
Rp2229
(dp2230
g10
S'sp'
p2231
sg12
S'10.886'
p2232
sg14
S'10.492'
p2233
sg16
S'sil'
p2234
sg18
g56
sbtp2235
a(g56
g4
(g5
g6
Ntp2236
Rp2237
(dp2238
g10
S'sp'
p2239
sg12
S'11.714'
p2240
sg14
S'11.382'
p2241
sg16
S'sil'
p2242
sg18
g56
sbtp2243
a(g56
g4
(g5
g6
Ntp2244
Rp2245
(dp2246
g10
S'sp'
p2247
sg12
S'12.728'
p2248
sg14
S'12.334'
p2249
sg16
S'sil'
p2250
sg18
g56
sbtp2251
a(g56
g4
(g5
g6
Ntp2252
Rp2253
(dp2254
g10
S'sp'
p2255
sg12
S'14.21'
p2256
sg14
S'14.016'
p2257
sg16
S'sil'
p2258
sg18
g56
sbtp2259
a(g56
g4
(g5
g6
Ntp2260
Rp2261
(dp2262
g10
S'sp'
p2263
sg12
S'16.8479999'
p2264
sg14
S'14.862'
p2265
sg16
S'sil'
p2266
sg18
g56
sbtp2267
a(g71
g4
(g5
g6
Ntp2268
Rp2269
(dp2270
g10
S'sp'
p2271
sg12
S'7.548'
p2272
sg14
S'6.076'
p2273
sg16
S'sil'
p2274
sg18
g71
sbtp2275
a(g93
g4
(g5
g6
Ntp2276
Rp2277
(dp2278
g10
S'sp'
p2279
sg12
S'3.84'
p2280
sg14
S'3.836'
p2281
sg16
S'sil'
p2282
sg18
g93
sbtp2283
a(g93
g4
(g5
g6
Ntp2284
Rp2285
(dp2286
g10
S'sp'
p2287
sg12
S'5.256'
p2288
sg14
S'4.826'
p2289
sg16
S'sil'
p2290
sg18
g93
sbtp2291
a(g93
g4
(g5
g6
Ntp2292
Rp2293
(dp2294
g10
S'sp'
p2295
sg12
S'8.7'
p2296
sg14
S'7.164'
p2297
sg16
S'sil'
p2298
sg18
g93
sbtp2299
a(g122
g4
(g5
g6
Ntp2300
Rp2301
(dp2302
g10
S'sp'
p2303
sg12
S'4.246'
p2304
sg14
S'4.17'
p2305
sg16
S'sil'
p2306
sg18
g122
sbtp2307
a(g122
g4
(g5
g6
Ntp2308
Rp2309
(dp2310
g10
S'sp'
p2311
sg12
S'7.208'
p2312
sg14
S'6.788'
p2313
sg16
S'sil'
p2314
sg18
g122
sbtp2315
a(g122
g4
(g5
g6
Ntp2316
Rp2317
(dp2318
g10
S'sp'
p2319
sg12
S'8.74'
p2320
sg14
S'8.454'
p2321
sg16
S'sil'
p2322
sg18
g122
sbtp2323
a(g122
g4
(g5
g6
Ntp2324
Rp2325
(dp2326
g10
S'sp'
p2327
sg12
S'14.012'
p2328
sg14
S'12.476'
p2329
sg16
S'sil'
p2330
sg18
g122
sbtp2331
a(g186
g4
(g5
g6
Ntp2332
Rp2333
(dp2334
g10
S'sp'
p2335
sg12
S'5.848'
p2336
sg14
S'5.338'
p2337
sg16
S'sil'
p2338
sg18
g186
sbtp2339
a(g186
g4
(g5
g6
Ntp2340
Rp2341
(dp2342
g10
S'sp'
p2343
sg12
S'8.794'
p2344
sg14
S'8.33'
p2345
sg16
S'sil'
p2346
sg18
g186
sbtp2347
a(g186
g4
(g5
g6
Ntp2348
Rp2349
(dp2350
g10
S'sp'
p2351
sg12
S'9.934'
p2352
sg14
S'9.436'
p2353
sg16
S'sil'
p2354
sg18
g186
sbtp2355
a(g186
g4
(g5
g6
Ntp2356
Rp2357
(dp2358
g10
S'sp'
p2359
sg12
S'11.436'
p2360
sg14
S'11.102'
p2361
sg16
S'sil'
p2362
sg18
g186
sbtp2363
a(g186
g4
(g5
g6
Ntp2364
Rp2365
(dp2366
g10
S'sp'
p2367
sg12
S'16.592'
p2368
sg14
S'14.636'
p2369
sg16
S'sil'
p2370
sg18
g186
sbtp2371
a(g215
g4
(g5
g6
Ntp2372
Rp2373
(dp2374
g10
S'sp'
p2375
sg12
S'5.898'
p2376
sg14
S'5.742'
p2377
sg16
S'sil'
p2378
sg18
g215
sbtp2379
a(g215
g4
(g5
g6
Ntp2380
Rp2381
(dp2382
g10
S'sp'
p2383
sg12
S'7.576'
p2384
sg14
S'7.558'
p2385
sg16
S'sil'
p2386
sg18
g215
sbtp2387
a(g215
g4
(g5
g6
Ntp2388
Rp2389
(dp2390
g10
S'sp'
p2391
sg12
S'10.748'
p2392
sg14
S'8.98'
p2393
sg16
S'sil'
p2394
sg18
g215
sbtp2395
a(g223
g4
(g5
g6
Ntp2396
Rp2397
(dp2398
g10
S'sp'
p2399
sg12
S'4.14'
p2400
sg14
S'4.068'
p2401
sg16
S'sil'
p2402
sg18
g223
sbtp2403
a(g223
g4
(g5
g6
Ntp2404
Rp2405
(dp2406
g10
S'sp'
p2407
sg12
S'8.272'
p2408
sg14
S'7.132'
p2409
sg16
S'sil'
p2410
sg18
g223
sbtp2411
asS'dA_sp'
p2412
(lp2413
(g186
g4
(g5
g6
Ntp2414
Rp2415
(dp2416
g10
S'dA'
p2417
sg12
S'12.706'
p2418
sg14
S'12.706'
p2419
sg16
S'sp'
p2420
sg18
g186
sbtp2421
asS'e_rr'
p2422
(lp2423
(g71
g4
(g5
g6
Ntp2424
Rp2425
(dp2426
g10
g332
sg12
S'5.082'
p2427
sg14
S'4.95'
p2428
sg16
S'rr'
p2429
sg18
g71
sbtp2430
asS'u_rA'
p2431
(lp2432
(g71
g4
(g5
g6
Ntp2433
Rp2434
(dp2435
g10
g570
sg12
S'3.326'
p2436
sg14
S'3.284'
p2437
sg16
S'rA'
p2438
sg18
g71
sbtp2439
a(g186
g4
(g5
g6
Ntp2440
Rp2441
(dp2442
g10
g570
sg12
S'11.838'
p2443
sg14
S'11.788'
p2444
sg16
S'rA'
p2445
sg18
g186
sbtp2446
asS'u_rr'
p2447
(lp2448
(g3
g4
(g5
g6
Ntp2449
Rp2450
(dp2451
g10
g570
sg12
S'8.316'
p2452
sg14
S'8.24'
p2453
sg16
S'rr'
p2454
sg18
g3
sbtp2455
asS'e_rA'
p2456
(lp2457
(g3
g4
(g5
g6
Ntp2458
Rp2459
(dp2460
g10
g332
sg12
S'6.83'
p2461
sg14
S'6.816'
p2462
sg16
S'rA'
p2463
sg18
g3
sbtp2464
a(g56
g4
(g5
g6
Ntp2465
Rp2466
(dp2467
g10
g332
sg12
S'14.458'
p2468
sg14
S'14.4'
p2469
sg16
S'rA'
p2470
sg18
g56
sbtp2471
a(g122
g4
(g5
g6
Ntp2472
Rp2473
(dp2474
g10
g332
sg12
S'1.986'
p2475
sg14
S'1.948'
p2476
sg16
S'rA'
p2477
sg18
g122
sbtp2478
a(g122
g4
(g5
g6
Ntp2479
Rp2480
(dp2481
g10
g332
sg12
S'7.38'
p2482
sg14
S'7.326'
p2483
sg16
S'rA'
p2484
sg18
g122
sbtp2485
asS'aS_uSV'
p2486
(lp2487
(g122
g4
(g5
g6
Ntp2488
Rp2489
(dp2490
g10
S'aS'
p2491
sg12
S'5.93'
p2492
sg14
S'5.88'
p2493
sg16
S'uSV'
p2494
sg18
g122
sbtp2495
asS'k_sp'
p2496
(lp2497
(g56
g4
(g5
g6
Ntp2498
Rp2499
(dp2500
g10
g1683
sg12
S'2.238'
p2501
sg14
S'2.238'
p2502
sg16
S'sp'
p2503
sg18
g56
sbtp2504
asS'e_dA'
p2505
(lp2506
(g56
g4
(g5
g6
Ntp2507
Rp2508
(dp2509
g10
g332
sg12
S'14.49'
p2510
sg14
S'14.484'
p2511
sg16
S'dA'
p2512
sg18
g56
sbtp2513
asS'u_l'
p2514
(lp2515
(g3
g4
(g5
g6
Ntp2516
Rp2517
(dp2518
g10
g570
sg12
S'5.686'
p2519
sg14
S'5.646'
p2520
sg16
g273
sg18
g3
sbtp2521
a(g3
g4
(g5
g6
Ntp2522
Rp2523
(dp2524
g10
g570
sg12
S'11.248'
p2525
sg14
S'11.218'
p2526
sg16
g273
sg18
g3
sbtp2527
asS'i_g_cl'
p2528
(lp2529
(g215
g4
(g5
g6
Ntp2530
Rp2531
(dp2532
g10
g253
sg12
S'8.324'
p2533
sg14
S'8.312'
p2534
sg16
S'g_cl'
p2535
sg18
g215
sbtp2536
asS'aS_d_cl'
p2537
(lp2538
(g56
g4
(g5
g6
Ntp2539
Rp2540
(dp2541
g10
S'aS'
p2542
sg12
S'3.532'
p2543
sg14
S'3.448'
p2544
sg16
S'd_cl'
p2545
sg18
g56
sbtp2546
asS'u_r'
p2547
(lp2548
(g215
g4
(g5
g6
Ntp2549
Rp2550
(dp2551
g10
g570
sg12
S'1.636'
p2552
sg14
S'1.6'
p2553
sg16
g290
sg18
g215
sbtp2554
asS'ch_a'
p2555
(lp2556
(g3
g4
(g5
g6
Ntp2557
Rp2558
(dp2559
g10
S'ch'
p2560
sg12
S'2.028'
p2561
sg14
S'1.982'
p2562
sg16
g236
sg18
g3
sbtp2563
asS'ch_o'
p2564
(lp2565
(g186
g4
(g5
g6
Ntp2566
Rp2567
(dp2568
g10
S'ch'
p2569
sg12
S'8.304'
p2570
sg14
S'8.188'
p2571
sg16
g429
sg18
g186
sbtp2572
asS'eS_t_cl'
p2573
(lp2574
(g122
g4
(g5
g6
Ntp2575
Rp2576
(dp2577
g10
S'eS'
p2578
sg12
S'4.642'
p2579
sg14
S'4.608'
p2580
sg16
S't_cl'
p2581
sg18
g122
sbtp2582
asS'rr_iS'
p2583
(lp2584
(g223
g4
(g5
g6
Ntp2585
Rp2586
(dp2587
g10
S'rr'
p2588
sg12
S'6.844'
p2589
sg14
S'6.754'
p2590
sg16
S'iS'
p2591
sg18
g223
sbtp2592
asS'ny_aS'
p2593
(lp2594
(g3
g4
(g5
g6
Ntp2595
Rp2596
(dp2597
g10
S'ny'
p2598
sg12
S'2.714'
p2599
sg14
S'2.674'
p2600
sg16
S'aS'
p2601
sg18
g3
sbtp2602
a(g71
g4
(g5
g6
Ntp2603
Rp2604
(dp2605
g10
S'ny'
p2606
sg12
S'3.13'
p2607
sg14
S'3.068'
p2608
sg16
S'aS'
p2609
sg18
g71
sbtp2610
asS'dA_eS'
p2611
(lp2612
(g56
g4
(g5
g6
Ntp2613
Rp2614
(dp2615
g10
S'dA'
p2616
sg12
S'9.84'
p2617
sg14
S'9.714'
p2618
sg16
S'eS'
p2619
sg18
g56
sbtp2620
a(g56
g4
(g5
g6
Ntp2621
Rp2622
(dp2623
g10
S'dA'
p2624
sg12
S'14.662'
p2625
sg14
S'14.49'
p2626
sg16
S'eS'
p2627
sg18
g56
sbtp2628
asS'uS_t_cl'
p2629
(lp2630
(g56
g4
(g5
g6
Ntp2631
Rp2632
(dp2633
g10
S'uS'
p2634
sg12
S'13.686'
p2635
sg14
S'13.678'
p2636
sg16
S't_cl'
p2637
sg18
g56
sbtp2638
a(g71
g4
(g5
g6
Ntp2639
Rp2640
(dp2641
g10
S'uS'
p2642
sg12
S'4.132'
p2643
sg14
S'4.112'
p2644
sg16
S't_cl'
p2645
sg18
g71
sbtp2646
asS'r_t_cl'
p2647
(lp2648
(g34
g4
(g5
g6
Ntp2649
Rp2650
(dp2651
g10
g290
sg12
S'10.184'
p2652
sg14
S'10.156'
p2653
sg16
S't_cl'
p2654
sg18
g34
sbtp2655
a(g122
g4
(g5
g6
Ntp2656
Rp2657
(dp2658
g10
g290
sg12
S'11.856'
p2659
sg14
S'11.804'
p2660
sg16
S't_cl'
p2661
sg18
g122
sbtp2662
a(g186
g4
(g5
g6
Ntp2663
Rp2664
(dp2665
g10
g290
sg12
S'6.642'
p2666
sg14
S'6.612'
p2667
sg16
S't_cl'
p2668
sg18
g186
sbtp2669
asS'sp_uSV'
p2670
(lp2671
(g3
g4
(g5
g6
Ntp2672
Rp2673
(dp2674
g10
S'sp'
p2675
sg12
S'4.302'
p2676
sg14
S'4.274'
p2677
sg16
S'uSV'
p2678
sg18
g3
sbtp2679
a(g71
g4
(g5
g6
Ntp2680
Rp2681
(dp2682
g10
S'sp'
p2683
sg12
S'3.712'
p2684
sg14
S'3.612'
p2685
sg16
S'uSV'
p2686
sg18
g71
sbtp2687
a(g93
g4
(g5
g6
Ntp2688
Rp2689
(dp2690
g10
S'sp'
p2691
sg12
S'1.834'
p2692
sg14
S'1.828'
p2693
sg16
S'uSV'
p2694
sg18
g93
sbtp2695
a(g215
g4
(g5
g6
Ntp2696
Rp2697
(dp2698
g10
S'sp'
p2699
sg12
S'2.506'
p2700
sg14
S'2.392'
p2701
sg16
S'uSV'
p2702
sg18
g215
sbtp2703
a(g215
g4
(g5
g6
Ntp2704
Rp2705
(dp2706
g10
S'sp'
p2707
sg12
S'5.55'
p2708
sg14
S'5.354'
p2709
sg16
S'uSV'
p2710
sg18
g215
sbtp2711
asS'i_k_cl'
p2712
(lp2713
(g93
g4
(g5
g6
Ntp2714
Rp2715
(dp2716
g10
g253
sg12
S'3.496'
p2717
sg14
S'3.46'
p2718
sg16
S'k_cl'
p2719
sg18
g93
sbtp2720
a(g186
g4
(g5
g6
Ntp2721
Rp2722
(dp2723
g10
g253
sg12
S'10.9'
p2724
sg14
S'10.86'
p2725
sg16
S'k_cl'
p2726
sg18
g186
sbtp2727
asS'm_i'
p2728
(lp2729
(g71
g4
(g5
g6
Ntp2730
Rp2731
(dp2732
g10
g1501
sg12
S'3.926'
p2733
sg14
S'3.904'
p2734
sg16
g253
sg18
g71
sbtp2735
a(g215
g4
(g5
g6
Ntp2736
Rp2737
(dp2738
g10
g1501
sg12
S'3.798'
p2739
sg14
S'3.766'
p2740
sg16
g253
sg18
g215
sbtp2741
asS'm_o'
p2742
(lp2743
(g34
g4
(g5
g6
Ntp2744
Rp2745
(dp2746
g10
g1501
sg12
S'9.612'
p2747
sg14
S'9.606'
p2748
sg16
g429
sg18
g34
sbtp2749
a(g122
g4
(g5
g6
Ntp2750
Rp2751
(dp2752
g10
g1501
sg12
S'2.24'
p2753
sg14
S'2.206'
p2754
sg16
g429
sg18
g122
sbtp2755
a(g122
g4
(g5
g6
Ntp2756
Rp2757
(dp2758
g10
g1501
sg12
S'7.642'
p2759
sg14
S'7.608'
p2760
sg16
g429
sg18
g122
sbtp2761
asS'm_a'
p2762
(lp2763
(g34
g4
(g5
g6
Ntp2764
Rp2765
(dp2766
g10
g1501
sg12
S'6.462'
p2767
sg14
S'6.416'
p2768
sg16
g236
sg18
g34
sbtp2769
a(g71
g4
(g5
g6
Ntp2770
Rp2771
(dp2772
g10
g1501
sg12
S'2.392'
p2773
sg14
S'2.35'
p2774
sg16
g236
sg18
g71
sbtp2775
a(g122
g4
(g5
g6
Ntp2776
Rp2777
(dp2778
g10
g1501
sg12
S'9.268'
p2779
sg14
S'9.228'
p2780
sg16
g236
sg18
g122
sbtp2781
a(g186
g4
(g5
g6
Ntp2782
Rp2783
(dp2784
g10
g1501
sg12
S'9.436'
p2785
sg14
S'9.272'
p2786
sg16
g236
sg18
g186
sbtp2787
a(g223
g4
(g5
g6
Ntp2788
Rp2789
(dp2790
g10
g1501
sg12
S'5.25'
p2791
sg14
S'5.206'
p2792
sg16
g236
sg18
g223
sbtp2793
asS'm_e'
p2794
(lp2795
(g93
g4
(g5
g6
Ntp2796
Rp2797
(dp2798
g10
g1501
sg12
S'4.44'
p2799
sg14
S'4.418'
p2800
sg16
g332
sg18
g93
sbtp2801
a(g122
g4
(g5
g6
Ntp2802
Rp2803
(dp2804
g10
g1501
sg12
S'10.142'
p2805
sg14
S'10.122'
p2806
sg16
g332
sg18
g122
sbtp2807
asS'r_gA'
p2808
(lp2809
(g215
g4
(g5
g6
Ntp2810
Rp2811
(dp2812
g10
g290
sg12
S'2.172'
p2813
sg14
S'1.972'
p2814
sg16
S'gA'
p2815
sg18
g215
sbtp2816
a(g223
g4
(g5
g6
Ntp2817
Rp2818
(dp2819
g10
g290
sg12
S'3.906'
p2820
sg14
S'3.848'
p2821
sg16
S'gA'
p2822
sg18
g223
sbtp2823
asS'x_iS'
p2824
(lp2825
(g3
g4
(g5
g6
Ntp2826
Rp2827
(dp2828
g10
g1944
sg12
S'4.168'
p2829
sg14
S'4.074'
p2830
sg16
S'iS'
p2831
sg18
g3
sbtp2832
a(g3
g4
(g5
g6
Ntp2833
Rp2834
(dp2835
g10
g1944
sg12
S'5.096'
p2836
sg14
S'4.954'
p2837
sg16
S'iS'
p2838
sg18
g3
sbtp2839
asS'm_u'
p2840
(lp2841
(g3
g4
(g5
g6
Ntp2842
Rp2843
(dp2844
g10
g1501
sg12
S'11.218'
p2845
sg14
S'11.188'
p2846
sg16
g570
sg18
g3
sbtp2847
asS'f_uS'
p2848
(lp2849
(g56
g4
(g5
g6
Ntp2850
Rp2851
(dp2852
g10
S'f'
p2853
sg12
S'9.016'
p2854
sg14
S'8.968'
p2855
sg16
S'uS'
p2856
sg18
g56
sbtp2857
a(g56
g4
(g5
g6
Ntp2858
Rp2859
(dp2860
g10
g2853
sg12
S'13.678'
p2861
sg14
S'13.62'
p2862
sg16
S'uS'
p2863
sg18
g56
sbtp2864
asS'uSC_aS'
p2865
(lp2866
(g56
g4
(g5
g6
Ntp2867
Rp2868
(dp2869
g10
S'uSC'
p2870
sg12
S'12.176'
p2871
sg14
S'12.168'
p2872
sg16
S'aS'
p2873
sg18
g56
sbtp2874
a(g122
g4
(g5
g6
Ntp2875
Rp2876
(dp2877
g10
S'uSC'
p2878
sg12
S'8.064'
p2879
sg14
S'8.048'
p2880
sg16
S'aS'
p2881
sg18
g122
sbtp2882
asS'f_uSC'
p2883
(lp2884
(g56
g4
(g5
g6
Ntp2885
Rp2886
(dp2887
g10
g2853
sg12
S'4.242'
p2888
sg14
S'4.206'
p2889
sg16
S'uSC'
p2890
sg18
g56
sbtp2891
a(g93
g4
(g5
g6
Ntp2892
Rp2893
(dp2894
g10
g2853
sg12
S'1.822'
p2895
sg14
S'1.75'
p2896
sg16
S'uSC'
p2897
sg18
g93
sbtp2898
a(g215
g4
(g5
g6
Ntp2899
Rp2900
(dp2901
g10
g2853
sg12
S'2.386'
p2902
sg14
S'2.332'
p2903
sg16
S'uSC'
p2904
sg18
g215
sbtp2905
a(g215
g4
(g5
g6
Ntp2906
Rp2907
(dp2908
g10
g2853
sg12
S'6.738'
p2909
sg14
S'6.694'
p2910
sg16
S'uSC'
p2911
sg18
g215
sbtp2912
asS'uS_p_cl'
p2913
(lp2914
(g3
g4
(g5
g6
Ntp2915
Rp2916
(dp2917
g10
S'uS'
p2918
sg12
S'4.502'
p2919
sg14
S'4.448'
p2920
sg16
S'p_cl'
p2921
sg18
g3
sbtp2922
a(g71
g4
(g5
g6
Ntp2923
Rp2924
(dp2925
g10
S'uS'
p2926
sg12
S'2.12'
p2927
sg14
S'2.082'
p2928
sg16
S'p_cl'
p2929
sg18
g71
sbtp2930
asS'bA_i'
p2931
(lp2932
(g122
g4
(g5
g6
Ntp2933
Rp2934
(dp2935
g10
S'bA'
p2936
sg12
S'7.892'
p2937
sg14
S'7.828'
p2938
sg16
g253
sg18
g122
sbtp2939
asS'bA_o'
p2940
(lp2941
(g223
g4
(g5
g6
Ntp2942
Rp2943
(dp2944
g10
S'bA'
p2945
sg12
S'6.952'
p2946
sg14
S'6.874'
p2947
sg16
g429
sg18
g223
sbtp2948
asS'bA_l'
p2949
(lp2950
(g34
g4
(g5
g6
Ntp2951
Rp2952
(dp2953
g10
S'bA'
p2954
sg12
S'3.054'
p2955
sg14
S'3.014'
p2956
sg16
g273
sg18
g34
sbtp2957
a(g34
g4
(g5
g6
Ntp2958
Rp2959
(dp2960
g10
S'bA'
p2961
sg12
S'9.094'
p2962
sg14
S'9.028'
p2963
sg16
g273
sg18
g34
sbtp2964
asS'bA_a'
p2965
(lp2966
(g3
g4
(g5
g6
Ntp2967
Rp2968
(dp2969
g10
S'bA'
p2970
sg12
S'3.708'
p2971
sg14
S'3.65'
p2972
sg16
g236
sg18
g3
sbtp2973
a(g215
g4
(g5
g6
Ntp2974
Rp2975
(dp2976
g10
S'bA'
p2977
sg12
S'3.512'
p2978
sg14
S'3.45'
p2979
sg16
g236
sg18
g215
sbtp2980
asS'bA_e'
p2981
(lp2982
(g56
g4
(g5
g6
Ntp2983
Rp2984
(dp2985
g10
S'bA'
p2986
sg12
S'5.118'
p2987
sg14
S'5.112'
p2988
sg16
g332
sg18
g56
sbtp2989
a(g56
g4
(g5
g6
Ntp2990
Rp2991
(dp2992
g10
S'bA'
p2993
sg12
S'7.42'
p2994
sg14
S'7.414'
p2995
sg16
g332
sg18
g56
sbtp2996
asS's_u'
p2997
(lp2998
(g3
g4
(g5
g6
Ntp2999
Rp3000
(dp3001
g10
g1596
sg12
S'8.24'
p3002
sg14
S'8.208'
p3003
sg16
g570
sg18
g3
sbtp3004
a(g34
g4
(g5
g6
Ntp3005
Rp3006
(dp3007
g10
g1596
sg12
S'8.258'
p3008
sg14
S'8.214'
p3009
sg16
g570
sg18
g34
sbtp3010
a(g93
g4
(g5
g6
Ntp3011
Rp3012
(dp3013
g10
g1596
sg12
S'2.904'
p3014
sg14
S'2.864'
p3015
sg16
g570
sg18
g93
sbtp3016
a(g93
g4
(g5
g6
Ntp3017
Rp3018
(dp3019
g10
g1596
sg12
S'6.502'
p3020
sg14
S'6.484'
p3021
sg16
g570
sg18
g93
sbtp3022
a(g223
g4
(g5
g6
Ntp3023
Rp3024
(dp3025
g10
g1596
sg12
S'2.974'
p3026
sg14
S'2.962'
p3027
sg16
g570
sg18
g223
sbtp3028
asS's_a'
p3029
(lp3030
(g3
g4
(g5
g6
Ntp3031
Rp3032
(dp3033
g10
g1596
sg12
S'2.852'
p3034
sg14
S'2.808'
p3035
sg16
g236
sg18
g3
sbtp3036
a(g122
g4
(g5
g6
Ntp3037
Rp3038
(dp3039
g10
g1596
sg12
S'6.056'
p3040
sg14
S'6.02'
p3041
sg16
g236
sg18
g122
sbtp3042
a(g186
g4
(g5
g6
Ntp3043
Rp3044
(dp3045
g10
g1596
sg12
S'4.248'
p3046
sg14
S'4.224'
p3047
sg16
g236
sg18
g186
sbtp3048
a(g186
g4
(g5
g6
Ntp3049
Rp3050
(dp3051
g10
g1596
sg12
S'7.35'
p3052
sg14
S'7.28'
p3053
sg16
g236
sg18
g186
sbtp3054
a(g223
g4
(g5
g6
Ntp3055
Rp3056
(dp3057
g10
g1596
sg12
S'4.518'
p3058
sg14
S'4.468'
p3059
sg16
g236
sg18
g223
sbtp3060
asS'n_d_cl'
p3061
(lp3062
(g34
g4
(g5
g6
Ntp3063
Rp3064
(dp3065
g10
g1807
sg12
S'9.256'
p3066
sg14
S'9.216'
p3067
sg16
S'd_cl'
p3068
sg18
g34
sbtp3069
a(g56
g4
(g5
g6
Ntp3070
Rp3071
(dp3072
g10
g1807
sg12
S'4.502'
p3073
sg14
S'4.45'
p3074
sg16
S'd_cl'
p3075
sg18
g56
sbtp3076
a(g56
g4
(g5
g6
Ntp3077
Rp3078
(dp3079
g10
g1807
sg12
S'8.638'
p3080
sg14
S'8.58'
p3081
sg16
S'd_cl'
p3082
sg18
g56
sbtp3083
a(g56
g4
(g5
g6
Ntp3084
Rp3085
(dp3086
g10
g1807
sg12
S'9.094'
p3087
sg14
S'9.034'
p3088
sg16
S'd_cl'
p3089
sg18
g56
sbtp3090
a(g122
g4
(g5
g6
Ntp3091
Rp3092
(dp3093
g10
g1807
sg12
S'2.592'
p3094
sg14
S'2.534'
p3095
sg16
S'd_cl'
p3096
sg18
g122
sbtp3097
a(g186
g4
(g5
g6
Ntp3098
Rp3099
(dp3100
g10
g1807
sg12
S'6.036'
p3101
sg14
S'6.014'
p3102
sg16
S'd_cl'
p3103
sg18
g186
sbtp3104
asS's_e'
p3105
(lp3106
(g3
g4
(g5
g6
Ntp3107
Rp3108
(dp3109
g10
g1596
sg12
S'2.546'
p3110
sg14
S'2.506'
p3111
sg16
g332
sg18
g3
sbtp3112
a(g56
g4
(g5
g6
Ntp3113
Rp3114
(dp3115
g10
g1596
sg12
S'8.816'
p3116
sg14
S'8.798'
p3117
sg16
g332
sg18
g56
sbtp3118
a(g122
g4
(g5
g6
Ntp3119
Rp3120
(dp3121
g10
g1596
sg12
S'10.456'
p3122
sg14
S'10.414'
p3123
sg16
g332
sg18
g122
sbtp3124
a(g186
g4
(g5
g6
Ntp3125
Rp3126
(dp3127
g10
g1596
sg12
S'3.906'
p3128
sg14
S'3.86'
p3129
sg16
g332
sg18
g186
sbtp3130
a(g186
g4
(g5
g6
Ntp3131
Rp3132
(dp3133
g10
g1596
sg12
S'13.296'
p3134
sg14
S'13.278'
p3135
sg16
g332
sg18
g186
sbtp3136
a(g186
g4
(g5
g6
Ntp3137
Rp3138
(dp3139
g10
g1596
sg12
S'13.838'
p3140
sg14
S'13.832'
p3141
sg16
g332
sg18
g186
sbtp3142
a(g186
g4
(g5
g6
Ntp3143
Rp3144
(dp3145
g10
g1596
sg12
S'13.972'
p3146
sg14
S'13.95'
p3147
sg16
g332
sg18
g186
sbtp3148
a(g186
g4
(g5
g6
Ntp3149
Rp3150
(dp3151
g10
g1596
sg12
S'14.438'
p3152
sg14
S'14.35'
p3153
sg16
g332
sg18
g186
sbtp3154
a(g215
g4
(g5
g6
Ntp3155
Rp3156
(dp3157
g10
g1596
sg12
S'8.038'
p3158
sg14
S'8.012'
p3159
sg16
g332
sg18
g215
sbtp3160
asS's_i'
p3161
(lp3162
(g3
g4
(g5
g6
Ntp3163
Rp3164
(dp3165
g10
g1596
sg12
S'7.674'
p3166
sg14
S'7.63'
p3167
sg16
g253
sg18
g3
sbtp3168
a(g3
g4
(g5
g6
Ntp3169
Rp3170
(dp3171
g10
g1596
sg12
S'8.568'
p3172
sg14
S'8.534'
p3173
sg16
g253
sg18
g3
sbtp3174
a(g34
g4
(g5
g6
Ntp3175
Rp3176
(dp3177
g10
g1596
sg12
S'8.472'
p3178
sg14
S'8.46'
p3179
sg16
g253
sg18
g34
sbtp3180
a(g56
g4
(g5
g6
Ntp3181
Rp3182
(dp3183
g10
g1596
sg12
S'3.354'
p3184
sg14
S'3.304'
p3185
sg16
g253
sg18
g56
sbtp3186
a(g56
g4
(g5
g6
Ntp3187
Rp3188
(dp3189
g10
g1596
sg12
S'5.29'
p3190
sg14
S'5.244'
p3191
sg16
g253
sg18
g56
sbtp3192
a(g56
g4
(g5
g6
Ntp3193
Rp3194
(dp3195
g10
g1596
sg12
S'7.542'
p3196
sg14
S'7.524'
p3197
sg16
g253
sg18
g56
sbtp3198
a(g122
g4
(g5
g6
Ntp3199
Rp3200
(dp3201
g10
g1596
sg12
S'3.93'
p3202
sg14
S'3.9'
p3203
sg16
g253
sg18
g122
sbtp3204
a(g122
g4
(g5
g6
Ntp3205
Rp3206
(dp3207
g10
g1596
sg12
S'4.886'
p3208
sg14
S'4.858'
p3209
sg16
g253
sg18
g122
sbtp3210
a(g122
g4
(g5
g6
Ntp3211
Rp3212
(dp3213
g10
g1596
sg12
S'5.666'
p3214
sg14
S'5.654'
p3215
sg16
g253
sg18
g122
sbtp3216
a(g186
g4
(g5
g6
Ntp3217
Rp3218
(dp3219
g10
g1596
sg12
S'3.37'
p3220
sg14
S'3.354'
p3221
sg16
g253
sg18
g186
sbtp3222
a(g186
g4
(g5
g6
Ntp3223
Rp3224
(dp3225
g10
g1596
sg12
S'5.058'
p3226
sg14
S'5.008'
p3227
sg16
g253
sg18
g186
sbtp3228
a(g186
g4
(g5
g6
Ntp3229
Rp3230
(dp3231
g10
g1596
sg12
S'5.944'
p3232
sg14
S'5.92'
p3233
sg16
g253
sg18
g186
sbtp3234
a(g186
g4
(g5
g6
Ntp3235
Rp3236
(dp3237
g10
g1596
sg12
S'13.552'
p3238
sg14
S'13.536'
p3239
sg16
g253
sg18
g186
sbtp3240
a(g215
g4
(g5
g6
Ntp3241
Rp3242
(dp3243
g10
g1596
sg12
S'4.61'
p3244
sg14
S'4.558'
p3245
sg16
g253
sg18
g215
sbtp3246
a(g215
g4
(g5
g6
Ntp3247
Rp3248
(dp3249
g10
g1596
sg12
S'6.9'
p3250
sg14
S'6.852'
p3251
sg16
g253
sg18
g215
sbtp3252
a(g215
g4
(g5
g6
Ntp3253
Rp3254
(dp3255
g10
g1596
sg12
S'8.312'
p3256
sg14
S'8.296'
p3257
sg16
g253
sg18
g215
sbtp3258
asS'uS_dA'
p3259
(lp3260
(g3
g4
(g5
g6
Ntp3261
Rp3262
(dp3263
g10
S'uS'
p3264
sg12
S'11.6'
p3265
sg14
S'11.594'
p3266
sg16
S'dA'
p3267
sg18
g3
sbtp3268
asS's_o'
p3269
(lp3270
(g34
g4
(g5
g6
Ntp3271
Rp3272
(dp3273
g10
g1596
sg12
S'4.486'
p3274
sg14
S'4.446'
p3275
sg16
g429
sg18
g34
sbtp3276
asS'u_ch_cl'
p3277
(lp3278
(g34
g4
(g5
g6
Ntp3279
Rp3280
(dp3281
g10
g570
sg12
S'10.828'
p3282
sg14
S'10.822'
p3283
sg16
S'ch_cl'
p3284
sg18
g34
sbtp3285
asS'sp_dA'
p3286
(lp3287
(g3
g4
(g5
g6
Ntp3288
Rp3289
(dp3290
g10
S'sp'
p3291
sg12
S'2.14'
p3292
sg14
S'2.104'
p3293
sg16
S'dA'
p3294
sg18
g3
sbtp3295
a(g3
g4
(g5
g6
Ntp3296
Rp3297
(dp3298
g10
S'sp'
p3299
sg12
S'2.96'
p3300
sg14
S'2.914'
p3301
sg16
S'dA'
p3302
sg18
g3
sbtp3303
a(g3
g4
(g5
g6
Ntp3304
Rp3305
(dp3306
g10
S'sp'
p3307
sg12
S'3.79'
p3308
sg14
S'3.78'
p3309
sg16
S'dA'
p3310
sg18
g3
sbtp3311
a(g3
g4
(g5
g6
Ntp3312
Rp3313
(dp3314
g10
S'sp'
p3315
sg12
S'5.226'
p3316
sg14
S'5.108'
p3317
sg16
S'dA'
p3318
sg18
g3
sbtp3319
a(g3
g4
(g5
g6
Ntp3320
Rp3321
(dp3322
g10
S'sp'
p3323
sg12
S'5.238'
p3324
sg14
S'5.232'
p3325
sg16
S'dA'
p3326
sg18
g3
sbtp3327
a(g3
g4
(g5
g6
Ntp3328
Rp3329
(dp3330
g10
S'sp'
p3331
sg12
S'10.942'
p3332
sg14
S'10.896'
p3333
sg16
S'dA'
p3334
sg18
g3
sbtp3335
a(g34
g4
(g5
g6
Ntp3336
Rp3337
(dp3338
g10
S'sp'
p3339
sg12
S'2.622'
p3340
sg14
S'2.55'
p3341
sg16
S'dA'
p3342
sg18
g34
sbtp3343
a(g56
g4
(g5
g6
Ntp3344
Rp3345
(dp3346
g10
S'sp'
p3347
sg12
S'3.054'
p3348
sg14
S'3.018'
p3349
sg16
S'dA'
p3350
sg18
g56
sbtp3351
a(g56
g4
(g5
g6
Ntp3352
Rp3353
(dp3354
g10
S'sp'
p3355
sg12
S'3.614'
p3356
sg14
S'3.538'
p3357
sg16
S'dA'
p3358
sg18
g56
sbtp3359
a(g56
g4
(g5
g6
Ntp3360
Rp3361
(dp3362
g10
S'sp'
p3363
sg12
S'13.444'
p3364
sg14
S'13.394'
p3365
sg16
S'dA'
p3366
sg18
g56
sbtp3367
a(g71
g4
(g5
g6
Ntp3368
Rp3369
(dp3370
g10
S'sp'
p3371
sg12
S'3.24'
p3372
sg14
S'3.168'
p3373
sg16
S'dA'
p3374
sg18
g71
sbtp3375
a(g71
g4
(g5
g6
Ntp3376
Rp3377
(dp3378
g10
S'sp'
p3379
sg12
S'4.944'
p3380
sg14
S'4.938'
p3381
sg16
S'dA'
p3382
sg18
g71
sbtp3383
a(g71
g4
(g5
g6
Ntp3384
Rp3385
(dp3386
g10
S'sp'
p3387
sg12
S'5.626'
p3388
sg14
S'5.586'
p3389
sg16
S'dA'
p3390
sg18
g71
sbtp3391
a(g93
g4
(g5
g6
Ntp3392
Rp3393
(dp3394
g10
S'sp'
p3395
sg12
S'1.96'
p3396
sg14
S'1.918'
p3397
sg16
S'dA'
p3398
sg18
g93
sbtp3399
a(g93
g4
(g5
g6
Ntp3400
Rp3401
(dp3402
g10
S'sp'
p3403
sg12
S'2.95'
p3404
sg14
S'2.904'
p3405
sg16
S'dA'
p3406
sg18
g93
sbtp3407
a(g93
g4
(g5
g6
Ntp3408
Rp3409
(dp3410
g10
S'sp'
p3411
sg12
S'5.618'
p3412
sg14
S'5.606'
p3413
sg16
S'dA'
p3414
sg18
g93
sbtp3415
a(g122
g4
(g5
g6
Ntp3416
Rp3417
(dp3418
g10
S'sp'
p3419
sg12
S'3.3'
p3420
sg14
S'3.266'
p3421
sg16
S'dA'
p3422
sg18
g122
sbtp3423
a(g122
g4
(g5
g6
Ntp3424
Rp3425
(dp3426
g10
S'sp'
p3427
sg12
S'11.324'
p3428
sg14
S'11.318'
p3429
sg16
S'dA'
p3430
sg18
g122
sbtp3431
a(g186
g4
(g5
g6
Ntp3432
Rp3433
(dp3434
g10
S'sp'
p3435
sg12
S'4.356'
p3436
sg14
S'4.34'
p3437
sg16
S'dA'
p3438
sg18
g186
sbtp3439
a(g186
g4
(g5
g6
Ntp3440
Rp3441
(dp3442
g10
S'sp'
p3443
sg12
S'7.416'
p3444
sg14
S'7.35'
p3445
sg16
S'dA'
p3446
sg18
g186
sbtp3447
a(g186
g4
(g5
g6
Ntp3448
Rp3449
(dp3450
g10
S'sp'
p3451
sg12
S'7.804'
p3452
sg14
S'7.724'
p3453
sg16
S'dA'
p3454
sg18
g186
sbtp3455
a(g186
g4
(g5
g6
Ntp3456
Rp3457
(dp3458
g10
S'sp'
p3459
sg12
S'10.644'
p3460
sg14
S'10.638'
p3461
sg16
S'dA'
p3462
sg18
g186
sbtp3463
a(g186
g4
(g5
g6
Ntp3464
Rp3465
(dp3466
g10
S'sp'
p3467
sg12
S'12.706'
p3468
sg14
S'12.674'
p3469
sg16
S'dA'
p3470
sg18
g186
sbtp3471
a(g186
g4
(g5
g6
Ntp3472
Rp3473
(dp3474
g10
S'sp'
p3475
sg12
S'13.038'
p3476
sg14
S'12.932'
p3477
sg16
S'dA'
p3478
sg18
g186
sbtp3479
a(g215
g4
(g5
g6
Ntp3480
Rp3481
(dp3482
g10
S'sp'
p3483
sg12
S'2.694'
p3484
sg14
S'2.656'
p3485
sg16
S'dA'
p3486
sg18
g215
sbtp3487
a(g215
g4
(g5
g6
Ntp3488
Rp3489
(dp3490
g10
S'sp'
p3491
sg12
S'3.314'
p3492
sg14
S'3.254'
p3493
sg16
S'dA'
p3494
sg18
g215
sbtp3495
a(g215
g4
(g5
g6
Ntp3496
Rp3497
(dp3498
g10
S'sp'
p3499
sg12
S'4.09'
p3500
sg14
S'4.07'
p3501
sg16
S'dA'
p3502
sg18
g215
sbtp3503
a(g215
g4
(g5
g6
Ntp3504
Rp3505
(dp3506
g10
S'sp'
p3507
sg12
S'4.944'
p3508
sg14
S'4.92'
p3509
sg16
S'dA'
p3510
sg18
g215
sbtp3511
a(g223
g4
(g5
g6
Ntp3512
Rp3513
(dp3514
g10
S'sp'
p3515
sg12
S'6.138'
p3516
sg14
S'6.092'
p3517
sg16
S'dA'
p3518
sg18
g223
sbtp3519
asS'r_uS'
p3520
(lp3521
(g3
g4
(g5
g6
Ntp3522
Rp3523
(dp3524
g10
g290
sg12
S'4.448'
p3525
sg14
S'4.394'
p3526
sg16
S'uS'
p3527
sg18
g3
sbtp3528
asS'a_sp'
p3529
(lp3530
(g3
g4
(g5
g6
Ntp3531
Rp3532
(dp3533
g10
g236
sg12
S'4.274'
p3534
sg14
S'4.254'
p3535
sg16
S'sp'
p3536
sg18
g3
sbtp3537
a(g3
g4
(g5
g6
Ntp3538
Rp3539
(dp3540
g10
g236
sg12
S'7.27'
p3541
sg14
S'7.27'
p3542
sg16
S'sp'
p3543
sg18
g3
sbtp3544
a(g34
g4
(g5
g6
Ntp3545
Rp3546
(dp3547
g10
g236
sg12
S'9.798'
p3548
sg14
S'9.798'
p3549
sg16
S'sp'
p3550
sg18
g34
sbtp3551
a(g56
g4
(g5
g6
Ntp3552
Rp3553
(dp3554
g10
g236
sg12
S'3.178'
p3555
sg14
S'3.178'
p3556
sg16
S'sp'
p3557
sg18
g56
sbtp3558
a(g56
g4
(g5
g6
Ntp3559
Rp3560
(dp3561
g10
g236
sg12
S'4.062'
p3562
sg14
S'4.062'
p3563
sg16
S'sp'
p3564
sg18
g56
sbtp3565
a(g56
g4
(g5
g6
Ntp3566
Rp3567
(dp3568
g10
g236
sg12
S'7.138'
p3569
sg14
S'7.138'
p3570
sg16
S'sp'
p3571
sg18
g56
sbtp3572
a(g56
g4
(g5
g6
Ntp3573
Rp3574
(dp3575
g10
g236
sg12
S'9.174'
p3576
sg14
S'9.174'
p3577
sg16
S'sp'
p3578
sg18
g56
sbtp3579
a(g56
g4
(g5
g6
Ntp3580
Rp3581
(dp3582
g10
g236
sg12
S'10.492'
p3583
sg14
S'10.492'
p3584
sg16
S'sp'
p3585
sg18
g56
sbtp3586
a(g71
g4
(g5
g6
Ntp3587
Rp3588
(dp3589
g10
g236
sg12
S'4.478'
p3590
sg14
S'4.478'
p3591
sg16
S'sp'
p3592
sg18
g71
sbtp3593
a(g71
g4
(g5
g6
Ntp3594
Rp3595
(dp3596
g10
g236
sg12
S'4.938'
p3597
sg14
S'4.938'
p3598
sg16
S'sp'
p3599
sg18
g71
sbtp3600
a(g71
g4
(g5
g6
Ntp3601
Rp3602
(dp3603
g10
g236
sg12
S'5.222'
p3604
sg14
S'5.222'
p3605
sg16
S'sp'
p3606
sg18
g71
sbtp3607
a(g71
g4
(g5
g6
Ntp3608
Rp3609
(dp3610
g10
g236
sg12
S'6.076'
p3611
sg14
S'6.076'
p3612
sg16
S'sp'
p3613
sg18
g71
sbtp3614
a(g93
g4
(g5
g6
Ntp3615
Rp3616
(dp3617
g10
g236
sg12
S'3.836'
p3618
sg14
S'3.826'
p3619
sg16
S'sp'
p3620
sg18
g93
sbtp3621
a(g122
g4
(g5
g6
Ntp3622
Rp3623
(dp3624
g10
g236
sg12
S'5.694'
p3625
sg14
S'5.694'
p3626
sg16
S'sp'
p3627
sg18
g122
sbtp3628
a(g122
g4
(g5
g6
Ntp3629
Rp3630
(dp3631
g10
g236
sg12
S'6.056'
p3632
sg14
S'6.056'
p3633
sg16
S'sp'
p3634
sg18
g122
sbtp3635
a(g122
g4
(g5
g6
Ntp3636
Rp3637
(dp3638
g10
g236
sg12
S'6.788'
p3639
sg14
S'6.788'
p3640
sg16
S'sp'
p3641
sg18
g122
sbtp3642
a(g122
g4
(g5
g6
Ntp3643
Rp3644
(dp3645
g10
g236
sg12
S'12.476'
p3646
sg14
S'12.404'
p3647
sg16
S'sp'
p3648
sg18
g122
sbtp3649
a(g186
g4
(g5
g6
Ntp3650
Rp3651
(dp3652
g10
g236
sg12
S'6.184'
p3653
sg14
S'6.184'
p3654
sg16
S'sp'
p3655
sg18
g186
sbtp3656
a(g186
g4
(g5
g6
Ntp3657
Rp3658
(dp3659
g10
g236
sg12
S'7.35'
p3660
sg14
S'7.35'
p3661
sg16
S'sp'
p3662
sg18
g186
sbtp3663
a(g186
g4
(g5
g6
Ntp3664
Rp3665
(dp3666
g10
g236
sg12
S'9.436'
p3667
sg14
S'9.436'
p3668
sg16
S'sp'
p3669
sg18
g186
sbtp3670
a(g186
g4
(g5
g6
Ntp3671
Rp3672
(dp3673
g10
g236
sg12
S'9.99'
p3674
sg14
S'9.99'
p3675
sg16
S'sp'
p3676
sg18
g186
sbtp3677
a(g186
g4
(g5
g6
Ntp3678
Rp3679
(dp3680
g10
g236
sg12
S'10.638'
p3681
sg14
S'10.638'
p3682
sg16
S'sp'
p3683
sg18
g186
sbtp3684
a(g186
g4
(g5
g6
Ntp3685
Rp3686
(dp3687
g10
g236
sg12
S'11.102'
p3688
sg14
S'11.074'
p3689
sg16
S'sp'
p3690
sg18
g186
sbtp3691
a(g186
g4
(g5
g6
Ntp3692
Rp3693
(dp3694
g10
g236
sg12
S'12.164'
p3695
sg14
S'12.164'
p3696
sg16
S'sp'
p3697
sg18
g186
sbtp3698
a(g186
g4
(g5
g6
Ntp3699
Rp3700
(dp3701
g10
g236
sg12
S'12.674'
p3702
sg14
S'12.674'
p3703
sg16
S'sp'
p3704
sg18
g186
sbtp3705
a(g223
g4
(g5
g6
Ntp3706
Rp3707
(dp3708
g10
g236
sg12
S'3.346'
p3709
sg14
S'3.346'
p3710
sg16
S'sp'
p3711
sg18
g223
sbtp3712
a(g223
g4
(g5
g6
Ntp3713
Rp3714
(dp3715
g10
g236
sg12
S'3.546'
p3716
sg14
S'3.546'
p3717
sg16
S'sp'
p3718
sg18
g223
sbtp3719
a(g223
g4
(g5
g6
Ntp3720
Rp3721
(dp3722
g10
g236
sg12
S'4.068'
p3723
sg14
S'4.068'
p3724
sg16
S'sp'
p3725
sg18
g223
sbtp3726
a(g223
g4
(g5
g6
Ntp3727
Rp3728
(dp3729
g10
g236
sg12
S'4.828'
p3730
sg14
S'4.828'
p3731
sg16
S'sp'
p3732
sg18
g223
sbtp3733
a(g223
g4
(g5
g6
Ntp3734
Rp3735
(dp3736
g10
g236
sg12
S'4.904'
p3737
sg14
S'4.904'
p3738
sg16
S'sp'
p3739
sg18
g223
sbtp3740
a(g223
g4
(g5
g6
Ntp3741
Rp3742
(dp3743
g10
g236
sg12
S'5.25'
p3744
sg14
S'5.25'
p3745
sg16
S'sp'
p3746
sg18
g223
sbtp3747
a(g223
g4
(g5
g6
Ntp3748
Rp3749
(dp3750
g10
g236
sg12
S'6.246'
p3751
sg14
S'6.246'
p3752
sg16
S'sp'
p3753
sg18
g223
sbtp3754
a(g223
g4
(g5
g6
Ntp3755
Rp3756
(dp3757
g10
g236
sg12
S'6.674'
p3758
sg14
S'6.674'
p3759
sg16
S'sp'
p3760
sg18
g223
sbtp3761
asS'i_sp'
p3762
(lp3763
(g3
g4
(g5
g6
Ntp3764
Rp3765
(dp3766
g10
g253
sg12
S'7.988'
p3767
sg14
S'7.988'
p3768
sg16
S'sp'
p3769
sg18
g3
sbtp3770
a(g34
g4
(g5
g6
Ntp3771
Rp3772
(dp3773
g10
g253
sg12
S'8.02'
p3774
sg14
S'8.02'
p3775
sg16
S'sp'
p3776
sg18
g34
sbtp3777
a(g93
g4
(g5
g6
Ntp3778
Rp3779
(dp3780
g10
g253
sg12
S'4.156'
p3781
sg14
S'4.156'
p3782
sg16
S'sp'
p3783
sg18
g93
sbtp3784
a(g186
g4
(g5
g6
Ntp3785
Rp3786
(dp3787
g10
g253
sg12
S'3.744'
p3788
sg14
S'3.744'
p3789
sg16
S'sp'
p3790
sg18
g186
sbtp3791
a(g186
g4
(g5
g6
Ntp3792
Rp3793
(dp3794
g10
g253
sg12
S'14.202'
p3795
sg14
S'14.202'
p3796
sg16
S'sp'
p3797
sg18
g186
sbtp3798
asS'sp_l'
p3799
(lp3800
(g3
g4
(g5
g6
Ntp3801
Rp3802
(dp3803
g10
S'sp'
p3804
sg12
S'2.208'
p3805
sg14
S'2.158'
p3806
sg16
g273
sg18
g3
sbtp3807
a(g3
g4
(g5
g6
Ntp3808
Rp3809
(dp3810
g10
S'sp'
p3811
sg12
S'6.476'
p3812
sg14
S'6.432'
p3813
sg16
g273
sg18
g3
sbtp3814
a(g3
g4
(g5
g6
Ntp3815
Rp3816
(dp3817
g10
S'sp'
p3818
sg12
S'7.32'
p3819
sg14
S'7.27'
p3820
sg16
g273
sg18
g3
sbtp3821
a(g3
g4
(g5
g6
Ntp3822
Rp3823
(dp3824
g10
S'sp'
p3825
sg12
S'9.28'
p3826
sg14
S'9.194'
p3827
sg16
g273
sg18
g3
sbtp3828
a(g3
g4
(g5
g6
Ntp3829
Rp3830
(dp3831
g10
S'sp'
p3832
sg12
S'11.032'
p3833
sg14
S'10.998'
p3834
sg16
g273
sg18
g3
sbtp3835
a(g34
g4
(g5
g6
Ntp3836
Rp3837
(dp3838
g10
S'sp'
p3839
sg12
S'8.068'
p3840
sg14
S'8.02'
p3841
sg16
g273
sg18
g34
sbtp3842
a(g56
g4
(g5
g6
Ntp3843
Rp3844
(dp3845
g10
S'sp'
p3846
sg12
S'3.126'
p3847
sg14
S'3.07'
p3848
sg16
g273
sg18
g56
sbtp3849
a(g71
g4
(g5
g6
Ntp3850
Rp3851
(dp3852
g10
S'sp'
p3853
sg12
S'2.484'
p3854
sg14
S'2.398'
p3855
sg16
g273
sg18
g71
sbtp3856
a(g71
g4
(g5
g6
Ntp3857
Rp3858
(dp3859
g10
S'sp'
p3860
sg12
S'4.55'
p3861
sg14
S'4.478'
p3862
sg16
g273
sg18
g71
sbtp3863
a(g71
g4
(g5
g6
Ntp3864
Rp3865
(dp3866
g10
S'sp'
p3867
sg12
S'4.84'
p3868
sg14
S'4.778'
p3869
sg16
g273
sg18
g71
sbtp3870
a(g122
g4
(g5
g6
Ntp3871
Rp3872
(dp3873
g10
S'sp'
p3874
sg12
S'5.742'
p3875
sg14
S'5.694'
p3876
sg16
g273
sg18
g122
sbtp3877
a(g186
g4
(g5
g6
Ntp3878
Rp3879
(dp3880
g10
S'sp'
p3881
sg12
S'6.13'
p3882
sg14
S'6.09'
p3883
sg16
g273
sg18
g186
sbtp3884
a(g186
g4
(g5
g6
Ntp3885
Rp3886
(dp3887
g10
S'sp'
p3888
sg12
S'7.004'
p3889
sg14
S'6.952'
p3890
sg16
g273
sg18
g186
sbtp3891
a(g186
g4
(g5
g6
Ntp3892
Rp3893
(dp3894
g10
S'sp'
p3895
sg12
S'9.106'
p3896
sg14
S'8.96'
p3897
sg16
g273
sg18
g186
sbtp3898
a(g215
g4
(g5
g6
Ntp3899
Rp3900
(dp3901
g10
S'sp'
p3902
sg12
S'2.754'
p3903
sg14
S'2.7'
p3904
sg16
g273
sg18
g215
sbtp3905
a(g215
g4
(g5
g6
Ntp3906
Rp3907
(dp3908
g10
S'sp'
p3909
sg12
S'3.37'
p3910
sg14
S'3.322'
p3911
sg16
g273
sg18
g215
sbtp3912
a(g223
g4
(g5
g6
Ntp3913
Rp3914
(dp3915
g10
S'sp'
p3916
sg12
S'3.612'
p3917
sg14
S'3.546'
p3918
sg16
g273
sg18
g223
sbtp3919
a(g223
g4
(g5
g6
Ntp3920
Rp3921
(dp3922
g10
S'sp'
p3923
sg12
S'4.874'
p3924
sg14
S'4.828'
p3925
sg16
g273
sg18
g223
sbtp3926
a(g223
g4
(g5
g6
Ntp3927
Rp3928
(dp3929
g10
S'sp'
p3930
sg12
S'5.566'
p3931
sg14
S'5.498'
p3932
sg16
g273
sg18
g223
sbtp3933
a(g223
g4
(g5
g6
Ntp3934
Rp3935
(dp3936
g10
S'sp'
p3937
sg12
S'5.714'
p3938
sg14
S'5.684'
p3939
sg16
g273
sg18
g223
sbtp3940
a(g223
g4
(g5
g6
Ntp3941
Rp3942
(dp3943
g10
S'sp'
p3944
sg12
S'6.198'
p3945
sg14
S'6.144'
p3946
sg16
g273
sg18
g223
sbtp3947
asS'o_bA'
p3948
(lp3949
(g56
g4
(g5
g6
Ntp3950
Rp3951
(dp3952
g10
g429
sg12
S'5.112'
p3953
sg14
S'5.018'
p3954
sg16
S'bA'
p3955
sg18
g56
sbtp3956
a(g56
g4
(g5
g6
Ntp3957
Rp3958
(dp3959
g10
g429
sg12
S'7.414'
p3960
sg14
S'7.336'
p3961
sg16
S'bA'
p3962
sg18
g56
sbtp3963
asS'd_e'
p3964
(lp3965
(g122
g4
(g5
g6
Ntp3966
Rp3967
(dp3968
g10
g546
sg12
S'2.652'
p3969
sg14
S'2.612'
p3970
sg16
g332
sg18
g122
sbtp3971
asS'iS_bA'
p3972
(lp3973
(g223
g4
(g5
g6
Ntp3974
Rp3975
(dp3976
g10
S'iS'
p3977
sg12
S'6.874'
p3978
sg14
S'6.844'
p3979
sg16
S'bA'
p3980
sg18
g223
sbtp3981
asS'u_k_cl'
p3982
(lp3983
(g93
g4
(g5
g6
Ntp3984
Rp3985
(dp3986
g10
g570
sg12
S'6.508'
p3987
sg14
S'6.502'
p3988
sg16
S'k_cl'
p3989
sg18
g93
sbtp3990
asS'n_eS'
p3991
(lp3992
(g186
g4
(g5
g6
Ntp3993
Rp3994
(dp3995
g10
g1807
sg12
S'12.842'
p3996
sg14
S'12.776'
p3997
sg16
S'eS'
p3998
sg18
g186
sbtp3999
asS'i_oS'
p4000
(lp4001
(g3
g4
(g5
g6
Ntp4002
Rp4003
(dp4004
g10
g253
sg12
S'7.776'
p4005
sg14
S'7.674'
p4006
sg16
S'oS'
p4007
sg18
g3
sbtp4008
a(g3
g4
(g5
g6
Ntp4009
Rp4010
(dp4011
g10
g253
sg12
S'8.666'
p4012
sg14
S'8.568'
p4013
sg16
S'oS'
p4014
sg18
g3
sbtp4015
a(g122
g4
(g5
g6
Ntp4016
Rp4017
(dp4018
g10
g253
sg12
S'4.07'
p4019
sg14
S'3.93'
p4020
sg16
S'oS'
p4021
sg18
g122
sbtp4022
a(g215
g4
(g5
g6
Ntp4023
Rp4024
(dp4025
g10
g253
sg12
S'8.456'
p4026
sg14
S'8.426'
p4027
sg16
S'oS'
p4028
sg18
g215
sbtp4029
asS'm_aS'
p4030
(lp4031
(g56
g4
(g5
g6
Ntp4032
Rp4033
(dp4034
g10
g1501
sg12
S'3.834'
p4035
sg14
S'3.768'
p4036
sg16
S'aS'
p4037
sg18
g56
sbtp4038
a(g56
g4
(g5
g6
Ntp4039
Rp4040
(dp4041
g10
g1501
sg12
S'10.126'
p4042
sg14
S'10.054'
p4043
sg16
S'aS'
p4044
sg18
g56
sbtp4045
a(g56
g4
(g5
g6
Ntp4046
Rp4047
(dp4048
g10
g1501
sg12
S'12.866'
p4049
sg14
S'12.796'
p4050
sg16
S'aS'
p4051
sg18
g56
sbtp4052
a(g186
g4
(g5
g6
Ntp4053
Rp4054
(dp4055
g10
g1501
sg12
S'6.288'
p4056
sg14
S'6.264'
p4057
sg16
S'aS'
p4058
sg18
g186
sbtp4059
a(g186
g4
(g5
g6
Ntp4060
Rp4061
(dp4062
g10
g1501
sg12
S'10.092'
p4063
sg14
S'10.074'
p4064
sg16
S'aS'
p4065
sg18
g186
sbtp4066
a(g215
g4
(g5
g6
Ntp4067
Rp4068
(dp4069
g10
g1501
sg12
S'8.686'
p4070
sg14
S'8.636'
p4071
sg16
S'aS'
p4072
sg18
g215
sbtp4073
asS'r_bA'
p4074
(lp4075
(g34
g4
(g5
g6
Ntp4076
Rp4077
(dp4078
g10
g290
sg12
S'2.386'
p4079
sg14
S'2.33'
p4080
sg16
S'bA'
p4081
sg18
g34
sbtp4082
asS'k_cl_k'
p4083
(lp4084
(g3
g4
(g5
g6
Ntp4085
Rp4086
(dp4087
g10
S'k_cl'
p4088
sg12
S'8.404'
p4089
sg14
S'8.36'
p4090
sg16
g1683
sg18
g3
sbtp4091
a(g3
g4
(g5
g6
Ntp4092
Rp4093
(dp4094
g10
S'k_cl'
p4095
sg12
S'9.766'
p4096
sg14
S'9.67'
p4097
sg16
g1683
sg18
g3
sbtp4098
a(g34
g4
(g5
g6
Ntp4099
Rp4100
(dp4101
g10
S'k_cl'
p4102
sg12
S'2.678'
p4103
sg14
S'2.634'
p4104
sg16
g1683
sg18
g34
sbtp4105
a(g34
g4
(g5
g6
Ntp4106
Rp4107
(dp4108
g10
S'k_cl'
p4109
sg12
S'3.252'
p4110
sg14
S'3.174'
p4111
sg16
g1683
sg18
g34
sbtp4112
a(g34
g4
(g5
g6
Ntp4113
Rp4114
(dp4115
g10
S'k_cl'
p4116
sg12
S'7.55'
p4117
sg14
S'7.462'
p4118
sg16
g1683
sg18
g34
sbtp4119
a(g34
g4
(g5
g6
Ntp4120
Rp4121
(dp4122
g10
S'k_cl'
p4123
sg12
S'9.42'
p4124
sg14
S'9.368'
p4125
sg16
g1683
sg18
g34
sbtp4126
a(g34
g4
(g5
g6
Ntp4127
Rp4128
(dp4129
g10
S'k_cl'
p4130
sg12
S'10.052'
p4131
sg14
S'9.994'
p4132
sg16
g1683
sg18
g34
sbtp4133
a(g34
g4
(g5
g6
Ntp4134
Rp4135
(dp4136
g10
S'k_cl'
p4137
sg12
S'10.796'
p4138
sg14
S'10.69'
p4139
sg16
g1683
sg18
g34
sbtp4140
a(g56
g4
(g5
g6
Ntp4141
Rp4142
(dp4143
g10
S'k_cl'
p4144
sg12
S'2.238'
p4145
sg14
S'2.148'
p4146
sg16
g1683
sg18
g56
sbtp4147
a(g56
g4
(g5
g6
Ntp4148
Rp4149
(dp4150
g10
S'k_cl'
p4151
sg12
S'2.806'
p4152
sg14
S'2.714'
p4153
sg16
g1683
sg18
g56
sbtp4154
a(g56
g4
(g5
g6
Ntp4155
Rp4156
(dp4157
g10
S'k_cl'
p4158
sg12
S'5.658'
p4159
sg14
S'5.54'
p4160
sg16
g1683
sg18
g56
sbtp4161
a(g56
g4
(g5
g6
Ntp4162
Rp4163
(dp4164
g10
S'k_cl'
p4165
sg12
S'8.536'
p4166
sg14
S'8.43'
p4167
sg16
g1683
sg18
g56
sbtp4168
a(g56
g4
(g5
g6
Ntp4169
Rp4170
(dp4171
g10
S'k_cl'
p4172
sg12
S'11.156'
p4173
sg14
S'11'
p4174
sg16
g1683
sg18
g56
sbtp4175
a(g56
g4
(g5
g6
Ntp4176
Rp4177
(dp4178
g10
S'k_cl'
p4179
sg12
S'11.99'
p4180
sg14
S'11.884'
p4181
sg16
g1683
sg18
g56
sbtp4182
a(g56
g4
(g5
g6
Ntp4183
Rp4184
(dp4185
g10
S'k_cl'
p4186
sg12
S'13.236'
p4187
sg14
S'13.07'
p4188
sg16
g1683
sg18
g56
sbtp4189
a(g71
g4
(g5
g6
Ntp4190
Rp4191
(dp4192
g10
S'k_cl'
p4193
sg12
S'5.74'
p4194
sg14
S'5.68'
p4195
sg16
g1683
sg18
g71
sbtp4196
a(g93
g4
(g5
g6
Ntp4197
Rp4198
(dp4199
g10
S'k_cl'
p4200
sg12
S'3.544'
p4201
sg14
S'3.496'
p4202
sg16
g1683
sg18
g93
sbtp4203
a(g93
g4
(g5
g6
Ntp4204
Rp4205
(dp4206
g10
S'k_cl'
p4207
sg12
S'5.284'
p4208
sg14
S'5.278'
p4209
sg16
g1683
sg18
g93
sbtp4210
a(g93
g4
(g5
g6
Ntp4211
Rp4212
(dp4213
g10
S'k_cl'
p4214
sg12
S'5.932'
p4215
sg14
S'5.896'
p4216
sg16
g1683
sg18
g93
sbtp4217
a(g93
g4
(g5
g6
Ntp4218
Rp4219
(dp4220
g10
S'k_cl'
p4221
sg12
S'6.546'
p4222
sg14
S'6.508'
p4223
sg16
g1683
sg18
g93
sbtp4224
a(g122
g4
(g5
g6
Ntp4225
Rp4226
(dp4227
g10
S'k_cl'
p4228
sg12
S'2.7'
p4229
sg14
S'2.672'
p4230
sg16
g1683
sg18
g122
sbtp4231
a(g122
g4
(g5
g6
Ntp4232
Rp4233
(dp4234
g10
S'k_cl'
p4235
sg12
S'3.396'
p4236
sg14
S'3.364'
p4237
sg16
g1683
sg18
g122
sbtp4238
a(g122
g4
(g5
g6
Ntp4239
Rp4240
(dp4241
g10
S'k_cl'
p4242
sg12
S'5.852'
p4243
sg14
S'5.78'
p4244
sg16
g1683
sg18
g122
sbtp4245
a(g122
g4
(g5
g6
Ntp4246
Rp4247
(dp4248
g10
S'k_cl'
p4249
sg12
S'7.46'
p4250
sg14
S'7.412'
p4251
sg16
g1683
sg18
g122
sbtp4252
a(g122
g4
(g5
g6
Ntp4253
Rp4254
(dp4255
g10
S'k_cl'
p4256
sg12
S'8.898'
p4257
sg14
S'8.836'
p4258
sg16
g1683
sg18
g122
sbtp4259
a(g122
g4
(g5
g6
Ntp4260
Rp4261
(dp4262
g10
S'k_cl'
p4263
sg12
S'9.768'
p4264
sg14
S'9.74'
p4265
sg16
g1683
sg18
g122
sbtp4266
a(g122
g4
(g5
g6
Ntp4267
Rp4268
(dp4269
g10
S'k_cl'
p4270
sg12
S'10.508'
p4271
sg14
S'10.47'
p4272
sg16
g1683
sg18
g122
sbtp4273
a(g122
g4
(g5
g6
Ntp4274
Rp4275
(dp4276
g10
S'k_cl'
p4277
sg12
S'11.408'
p4278
sg14
S'11.394'
p4279
sg16
g1683
sg18
g122
sbtp4280
a(g186
g4
(g5
g6
Ntp4281
Rp4282
(dp4283
g10
S'k_cl'
p4284
sg12
S'2.942'
p4285
sg14
S'2.932'
p4286
sg16
g1683
sg18
g186
sbtp4287
a(g186
g4
(g5
g6
Ntp4288
Rp4289
(dp4290
g10
S'k_cl'
p4291
sg12
S'3.482'
p4292
sg14
S'3.422'
p4293
sg16
g1683
sg18
g186
sbtp4294
a(g186
g4
(g5
g6
Ntp4295
Rp4296
(dp4297
g10
S'k_cl'
p4298
sg12
S'10.972'
p4299
sg14
S'10.9'
p4300
sg16
g1683
sg18
g186
sbtp4301
a(g215
g4
(g5
g6
Ntp4302
Rp4303
(dp4304
g10
S'k_cl'
p4305
sg12
S'4.208'
p4306
sg14
S'4.13'
p4307
sg16
g1683
sg18
g215
sbtp4308
a(g215
g4
(g5
g6
Ntp4309
Rp4310
(dp4311
g10
S'k_cl'
p4312
sg12
S'6.256'
p4313
sg14
S'6.166'
p4314
sg16
g1683
sg18
g215
sbtp4315
a(g215
g4
(g5
g6
Ntp4316
Rp4317
(dp4318
g10
S'k_cl'
p4319
sg12
S'7.774'
p4320
sg14
S'7.7'
p4321
sg16
g1683
sg18
g215
sbtp4322
a(g215
g4
(g5
g6
Ntp4323
Rp4324
(dp4325
g10
S'k_cl'
p4326
sg12
S'8.088'
p4327
sg14
S'8.054'
p4328
sg16
g1683
sg18
g215
sbtp4329
a(g223
g4
(g5
g6
Ntp4330
Rp4331
(dp4332
g10
S'k_cl'
p4333
sg12
S'2.772'
p4334
sg14
S'2.766'
p4335
sg16
g1683
sg18
g223
sbtp4336
a(g223
g4
(g5
g6
Ntp4337
Rp4338
(dp4339
g10
S'k_cl'
p4340
sg12
S'5.806'
p4341
sg14
S'5.76'
p4342
sg16
g1683
sg18
g223
sbtp4343
asS'sil_rr'
p4344
(lp4345
(g34
g4
(g5
g6
Ntp4346
Rp4347
(dp4348
g10
S'sil'
p4349
sg12
S'4.32'
p4350
sg14
S'4.264'
p4351
sg16
S'rr'
p4352
sg18
g34
sbtp4353
a(g122
g4
(g5
g6
Ntp4354
Rp4355
(dp4356
g10
S'sil'
p4357
sg12
S'4.312'
p4358
sg14
S'4.246'
p4359
sg16
S'rr'
p4360
sg18
g122
sbtp4361
asS'o_x'
p4362
(lp4363
(g3
g4
(g5
g6
Ntp4364
Rp4365
(dp4366
g10
g429
sg12
S'4.954'
p4367
sg14
S'4.778'
p4368
sg16
g1944
sg18
g3
sbtp4369
asS'f_e'
p4370
(lp4371
(g3
g4
(g5
g6
Ntp4372
Rp4373
(dp4374
g10
g2853
sg12
S'6.816'
p4375
sg14
S'6.772'
p4376
sg16
g332
sg18
g3
sbtp4377
asS't_uS'
p4378
(lp4379
(g3
g4
(g5
g6
Ntp4380
Rp4381
(dp4382
g10
g670
sg12
S'11.594'
p4383
sg14
S'11.468'
p4384
sg16
S'uS'
p4385
sg18
g3
sbtp4386
a(g122
g4
(g5
g6
Ntp4387
Rp4388
(dp4389
g10
g670
sg12
S'11.654'
p4390
sg14
S'11.618'
p4391
sg16
S'uS'
p4392
sg18
g122
sbtp4393
asS'k_aS'
p4394
(lp4395
(g122
g4
(g5
g6
Ntp4396
Rp4397
(dp4398
g10
g1683
sg12
S'5.88'
p4399
sg14
S'5.852'
p4400
sg16
S'aS'
p4401
sg18
g122
sbtp4402
asS'l_u'
p4403
(lp4404
(g3
g4
(g5
g6
Ntp4405
Rp4406
(dp4407
g10
g273
sg12
S'9.33'
p4408
sg14
S'9.28'
p4409
sg16
g570
sg18
g3
sbtp4410
asS'f_o'
p4411
(lp4412
(g122
g4
(g5
g6
Ntp4413
Rp4414
(dp4415
g10
g2853
sg12
S'6.28'
p4416
sg14
S'6.242'
p4417
sg16
g429
sg18
g122
sbtp4418
asS'f_i'
p4419
(lp4420
(g34
g4
(g5
g6
Ntp4421
Rp4422
(dp4423
g10
g2853
sg12
S'8.358'
p4424
sg14
S'8.306'
p4425
sg16
g253
sg18
g34
sbtp4426
a(g71
g4
(g5
g6
Ntp4427
Rp4428
(dp4429
g10
g2853
sg12
S'5.382'
p4430
sg14
S'5.326'
p4431
sg16
g253
sg18
g71
sbtp4432
a(g93
g4
(g5
g6
Ntp4433
Rp4434
(dp4435
g10
g2853
sg12
S'3.46'
p4436
sg14
S'3.414'
p4437
sg16
g253
sg18
g93
sbtp4438
a(g186
g4
(g5
g6
Ntp4439
Rp4440
(dp4441
g10
g2853
sg12
S'4.878'
p4442
sg14
S'4.84'
p4443
sg16
g253
sg18
g186
sbtp4444
asS'gA_aS'
p4445
(lp4446
(g3
g4
(g5
g6
Ntp4447
Rp4448
(dp4449
g10
S'gA'
p4450
sg12
S'9.436'
p4451
sg14
S'9.376'
p4452
sg16
S'aS'
p4453
sg18
g3
sbtp4454
asS'f_u'
p4455
(lp4456
(g56
g4
(g5
g6
Ntp4457
Rp4458
(dp4459
g10
g2853
sg12
S'4.404'
p4460
sg14
S'4.37'
p4461
sg16
g570
sg18
g56
sbtp4462
asS'l_a'
p4463
(lp4464
(g3
g4
(g5
g6
Ntp4465
Rp4466
(dp4467
g10
g273
sg12
S'2.26'
p4468
sg14
S'2.208'
p4469
sg16
g236
sg18
g3
sbtp4470
a(g3
g4
(g5
g6
Ntp4471
Rp4472
(dp4473
g10
g273
sg12
S'6.518'
p4474
sg14
S'6.476'
p4475
sg16
g236
sg18
g3
sbtp4476
a(g3
g4
(g5
g6
Ntp4477
Rp4478
(dp4479
g10
g273
sg12
S'7.344'
p4480
sg14
S'7.32'
p4481
sg16
g236
sg18
g3
sbtp4482
a(g3
g4
(g5
g6
Ntp4483
Rp4484
(dp4485
g10
g273
sg12
S'11.062'
p4486
sg14
S'11.032'
p4487
sg16
g236
sg18
g3
sbtp4488
a(g34
g4
(g5
g6
Ntp4489
Rp4490
(dp4491
g10
g273
sg12
S'3.484'
p4492
sg14
S'3.43'
p4493
sg16
g236
sg18
g34
sbtp4494
a(g56
g4
(g5
g6
Ntp4495
Rp4496
(dp4497
g10
g273
sg12
S'3.178'
p4498
sg14
S'3.126'
p4499
sg16
g236
sg18
g56
sbtp4500
a(g56
g4
(g5
g6
Ntp4501
Rp4502
(dp4503
g10
g273
sg12
S'3.936'
p4504
sg14
S'3.882'
p4505
sg16
g236
sg18
g56
sbtp4506
a(g56
g4
(g5
g6
Ntp4507
Rp4508
(dp4509
g10
g273
sg12
S'10.246'
p4510
sg14
S'10.164'
p4511
sg16
g236
sg18
g56
sbtp4512
a(g56
g4
(g5
g6
Ntp4513
Rp4514
(dp4515
g10
g273
sg12
S'13.052'
p4516
sg14
S'12.902'
p4517
sg16
g236
sg18
g56
sbtp4518
a(g71
g4
(g5
g6
Ntp4519
Rp4520
(dp4521
g10
g273
sg12
S'4.938'
p4522
sg14
S'4.84'
p4523
sg16
g236
sg18
g71
sbtp4524
a(g122
g4
(g5
g6
Ntp4525
Rp4526
(dp4527
g10
g273
sg12
S'5.774'
p4528
sg14
S'5.742'
p4529
sg16
g236
sg18
g122
sbtp4530
a(g186
g4
(g5
g6
Ntp4531
Rp4532
(dp4533
g10
g273
sg12
S'6.184'
p4534
sg14
S'6.13'
p4535
sg16
g236
sg18
g186
sbtp4536
a(g186
g4
(g5
g6
Ntp4537
Rp4538
(dp4539
g10
g273
sg12
S'7.034'
p4540
sg14
S'7.004'
p4541
sg16
g236
sg18
g186
sbtp4542
a(g186
g4
(g5
g6
Ntp4543
Rp4544
(dp4545
g10
g273
sg12
S'9.99'
p4546
sg14
S'9.952'
p4547
sg16
g236
sg18
g186
sbtp4548
a(g223
g4
(g5
g6
Ntp4549
Rp4550
(dp4551
g10
g273
sg12
S'4.904'
p4552
sg14
S'4.874'
p4553
sg16
g236
sg18
g223
sbtp4554
a(g223
g4
(g5
g6
Ntp4555
Rp4556
(dp4557
g10
g273
sg12
S'6.246'
p4558
sg14
S'6.198'
p4559
sg16
g236
sg18
g223
sbtp4560
asS'l_e'
p4561
(lp4562
(g34
g4
(g5
g6
Ntp4563
Rp4564
(dp4565
g10
g273
sg12
S'4.752'
p4566
sg14
S'4.708'
p4567
sg16
g332
sg18
g34
sbtp4568
a(g34
g4
(g5
g6
Ntp4569
Rp4570
(dp4571
g10
g273
sg12
S'5.44'
p4572
sg14
S'5.416'
p4573
sg16
g332
sg18
g34
sbtp4574
a(g34
g4
(g5
g6
Ntp4575
Rp4576
(dp4577
g10
g273
sg12
S'6.57'
p4578
sg14
S'6.508'
p4579
sg16
g332
sg18
g34
sbtp4580
a(g34
g4
(g5
g6
Ntp4581
Rp4582
(dp4583
g10
g273
sg12
S'6.94'
p4584
sg14
S'6.852'
p4585
sg16
g332
sg18
g34
sbtp4586
a(g122
g4
(g5
g6
Ntp4587
Rp4588
(dp4589
g10
g273
sg12
S'9.44'
p4590
sg14
S'9.406'
p4591
sg16
g332
sg18
g122
sbtp4592
a(g186
g4
(g5
g6
Ntp4593
Rp4594
(dp4595
g10
g273
sg12
S'5.184'
p4596
sg14
S'5.164'
p4597
sg16
g332
sg18
g186
sbtp4598
a(g215
g4
(g5
g6
Ntp4599
Rp4600
(dp4601
g10
g273
sg12
S'3.402'
p4602
sg14
S'3.37'
p4603
sg16
g332
sg18
g215
sbtp4604
a(g223
g4
(g5
g6
Ntp4605
Rp4606
(dp4607
g10
g273
sg12
S'5.738'
p4608
sg14
S'5.714'
p4609
sg16
g332
sg18
g223
sbtp4610
asS'l_uS'
p4611
(lp4612
(g56
g4
(g5
g6
Ntp4613
Rp4614
(dp4615
g10
g273
sg12
S'13.334'
p4616
sg14
S'13.278'
p4617
sg16
S'uS'
p4618
sg18
g56
sbtp4619
asS'l_o'
p4620
(lp4621
(g3
g4
(g5
g6
Ntp4622
Rp4623
(dp4624
g10
g273
sg12
S'5.73'
p4625
sg14
S'5.686'
p4626
sg16
g429
sg18
g3
sbtp4627
a(g34
g4
(g5
g6
Ntp4628
Rp4629
(dp4630
g10
g273
sg12
S'8.104'
p4631
sg14
S'8.068'
p4632
sg16
g429
sg18
g34
sbtp4633
a(g71
g4
(g5
g6
Ntp4634
Rp4635
(dp4636
g10
g273
sg12
S'2.57'
p4637
sg14
S'2.484'
p4638
sg16
g429
sg18
g71
sbtp4639
a(g71
g4
(g5
g6
Ntp4640
Rp4641
(dp4642
g10
g273
sg12
S'4.632'
p4643
sg14
S'4.55'
p4644
sg16
g429
sg18
g71
sbtp4645
a(g215
g4
(g5
g6
Ntp4646
Rp4647
(dp4648
g10
g273
sg12
S'2.792'
p4649
sg14
S'2.754'
p4650
sg16
g429
sg18
g215
sbtp4651
a(g215
g4
(g5
g6
Ntp4652
Rp4653
(dp4654
g10
g273
sg12
S'5.354'
p4655
sg14
S'5.332'
p4656
sg16
g429
sg18
g215
sbtp4657
a(g215
g4
(g5
g6
Ntp4658
Rp4659
(dp4660
g10
g273
sg12
S'8.962'
p4661
sg14
S'8.852'
p4662
sg16
g429
sg18
g215
sbtp4663
a(g223
g4
(g5
g6
Ntp4664
Rp4665
(dp4666
g10
g273
sg12
S'4.27'
p4667
sg14
S'4.182'
p4668
sg16
g429
sg18
g223
sbtp4669
a(g223
g4
(g5
g6
Ntp4670
Rp4671
(dp4672
g10
g273
sg12
S'5.596'
p4673
sg14
S'5.566'
p4674
sg16
g429
sg18
g223
sbtp4675
asS't_b_cl'
p4676
(lp4677
(g56
g4
(g5
g6
Ntp4678
Rp4679
(dp4680
g10
g670
sg12
S'13.698'
p4681
sg14
S'13.692'
p4682
sg16
S'b_cl'
p4683
sg18
g56
sbtp4684
asS'o_m'
p4685
(lp4686
(g34
g4
(g5
g6
Ntp4687
Rp4688
(dp4689
g10
g429
sg12
S'9.606'
p4690
sg14
S'9.46'
p4691
sg16
g1501
sg18
g34
sbtp4692
a(g122
g4
(g5
g6
Ntp4693
Rp4694
(dp4695
g10
g429
sg12
S'3.488'
p4696
sg14
S'3.43'
p4697
sg16
g1501
sg18
g122
sbtp4698
a(g122
g4
(g5
g6
Ntp4699
Rp4700
(dp4701
g10
g429
sg12
S'7.608'
p4702
sg14
S'7.528'
p4703
sg16
g1501
sg18
g122
sbtp4704
a(g122
g4
(g5
g6
Ntp4705
Rp4706
(dp4707
g10
g429
sg12
S'9.862'
p4708
sg14
S'9.812'
p4709
sg16
g1501
sg18
g122
sbtp4710
a(g122
g4
(g5
g6
Ntp4711
Rp4712
(dp4713
g10
g429
sg12
S'10.122'
p4714
sg14
S'10.038'
p4715
sg16
g1501
sg18
g122
sbtp4716
a(g215
g4
(g5
g6
Ntp4717
Rp4718
(dp4719
g10
g429
sg12
S'8.636'
p4720
sg14
S'8.546'
p4721
sg16
g1501
sg18
g215
sbtp4722
asS'o_k_cl'
p4723
(lp4724
(g34
g4
(g5
g6
Ntp4725
Rp4726
(dp4727
g10
g429
sg12
S'9.368'
p4728
sg14
S'9.362'
p4729
sg16
S'k_cl'
p4730
sg18
g34
sbtp4731
a(g122
g4
(g5
g6
Ntp4732
Rp4733
(dp4734
g10
g429
sg12
S'7.412'
p4735
sg14
S'7.402'
p4736
sg16
S'k_cl'
p4737
sg18
g122
sbtp4738
asS'e_sp'
p4739
(lp4740
(g3
g4
(g5
g6
Ntp4741
Rp4742
(dp4743
g10
g332
sg12
S'2.158'
p4744
sg14
S'2.158'
p4745
sg16
S'sp'
p4746
sg18
g3
sbtp4747
a(g3
g4
(g5
g6
Ntp4748
Rp4749
(dp4750
g10
g332
sg12
S'3.012'
p4751
sg14
S'3.012'
p4752
sg16
S'sp'
p4753
sg18
g3
sbtp4754
a(g3
g4
(g5
g6
Ntp4755
Rp4756
(dp4757
g10
g332
sg12
S'5.232'
p4758
sg14
S'5.232'
p4759
sg16
S'sp'
p4760
sg18
g3
sbtp4761
a(g3
g4
(g5
g6
Ntp4762
Rp4763
(dp4764
g10
g332
sg12
S'10.998'
p4765
sg14
S'10.998'
p4766
sg16
S'sp'
p4767
sg18
g3
sbtp4768
a(g34
g4
(g5
g6
Ntp4769
Rp4770
(dp4771
g10
g332
sg12
S'5.44'
p4772
sg14
S'5.44'
p4773
sg16
S'sp'
p4774
sg18
g34
sbtp4775
a(g34
g4
(g5
g6
Ntp4776
Rp4777
(dp4778
g10
g332
sg12
S'5.944'
p4779
sg14
S'5.874'
p4780
sg16
S'sp'
p4781
sg18
g34
sbtp4782
a(g34
g4
(g5
g6
Ntp4783
Rp4784
(dp4785
g10
g332
sg12
S'7.01'
p4786
sg14
S'6.94'
p4787
sg16
S'sp'
p4788
sg18
g34
sbtp4789
a(g34
g4
(g5
g6
Ntp4790
Rp4791
(dp4792
g10
g332
sg12
S'9.022'
p4793
sg14
S'9.022'
p4794
sg16
S'sp'
p4795
sg18
g34
sbtp4796
a(g56
g4
(g5
g6
Ntp4797
Rp4798
(dp4799
g10
g332
sg12
S'3.07'
p4800
sg14
S'3.07'
p4801
sg16
S'sp'
p4802
sg18
g56
sbtp4803
a(g56
g4
(g5
g6
Ntp4804
Rp4805
(dp4806
g10
g332
sg12
S'3.668'
p4807
sg14
S'3.668'
p4808
sg16
S'sp'
p4809
sg18
g56
sbtp4810
a(g56
g4
(g5
g6
Ntp4811
Rp4812
(dp4813
g10
g332
sg12
S'4.248'
p4814
sg14
S'4.248'
p4815
sg16
S'sp'
p4816
sg18
g56
sbtp4817
a(g56
g4
(g5
g6
Ntp4818
Rp4819
(dp4820
g10
g332
sg12
S'8.816'
p4821
sg14
S'8.816'
p4822
sg16
S'sp'
p4823
sg18
g56
sbtp4824
a(g56
g4
(g5
g6
Ntp4825
Rp4826
(dp4827
g10
g332
sg12
S'13.472'
p4828
sg14
S'13.472'
p4829
sg16
S'sp'
p4830
sg18
g56
sbtp4831
a(g71
g4
(g5
g6
Ntp4832
Rp4833
(dp4834
g10
g332
sg12
S'3.612'
p4835
sg14
S'3.612'
p4836
sg16
S'sp'
p4837
sg18
g71
sbtp4838
a(g93
g4
(g5
g6
Ntp4839
Rp4840
(dp4841
g10
g332
sg12
S'1.828'
p4842
sg14
S'1.828'
p4843
sg16
S'sp'
p4844
sg18
g93
sbtp4845
a(g93
g4
(g5
g6
Ntp4846
Rp4847
(dp4848
g10
g332
sg12
S'5.33'
p4849
sg14
S'5.33'
p4850
sg16
S'sp'
p4851
sg18
g93
sbtp4852
a(g122
g4
(g5
g6
Ntp4853
Rp4854
(dp4855
g10
g332
sg12
S'11.33'
p4856
sg14
S'11.33'
p4857
sg16
S'sp'
p4858
sg18
g122
sbtp4859
a(g186
g4
(g5
g6
Ntp4860
Rp4861
(dp4862
g10
g332
sg12
S'6.952'
p4863
sg14
S'6.952'
p4864
sg16
S'sp'
p4865
sg18
g186
sbtp4866
a(g186
g4
(g5
g6
Ntp4867
Rp4868
(dp4869
g10
g332
sg12
S'7.868'
p4870
sg14
S'7.868'
p4871
sg16
S'sp'
p4872
sg18
g186
sbtp4873
a(g186
g4
(g5
g6
Ntp4874
Rp4875
(dp4876
g10
g332
sg12
S'10.65'
p4877
sg14
S'10.65'
p4878
sg16
S'sp'
p4879
sg18
g186
sbtp4880
a(g186
g4
(g5
g6
Ntp4881
Rp4882
(dp4883
g10
g332
sg12
S'13.044'
p4884
sg14
S'13.044'
p4885
sg16
S'sp'
p4886
sg18
g186
sbtp4887
a(g215
g4
(g5
g6
Ntp4888
Rp4889
(dp4890
g10
g332
sg12
S'2.392'
p4891
sg14
S'2.392'
p4892
sg16
S'sp'
p4893
sg18
g215
sbtp4894
a(g215
g4
(g5
g6
Ntp4895
Rp4896
(dp4897
g10
g332
sg12
S'2.7'
p4898
sg14
S'2.7'
p4899
sg16
S'sp'
p4900
sg18
g215
sbtp4901
a(g215
g4
(g5
g6
Ntp4902
Rp4903
(dp4904
g10
g332
sg12
S'3.322'
p4905
sg14
S'3.322'
p4906
sg16
S'sp'
p4907
sg18
g215
sbtp4908
a(g215
g4
(g5
g6
Ntp4909
Rp4910
(dp4911
g10
g332
sg12
S'6.746'
p4912
sg14
S'6.746'
p4913
sg16
S'sp'
p4914
sg18
g215
sbtp4915
a(g215
g4
(g5
g6
Ntp4916
Rp4917
(dp4918
g10
g332
sg12
S'7.816'
p4919
sg14
S'7.816'
p4920
sg16
S'sp'
p4921
sg18
g215
sbtp4922
a(g223
g4
(g5
g6
Ntp4923
Rp4924
(dp4925
g10
g332
sg12
S'5.498'
p4926
sg14
S'5.498'
p4927
sg16
S'sp'
p4928
sg18
g223
sbtp4929
a(g223
g4
(g5
g6
Ntp4930
Rp4931
(dp4932
g10
g332
sg12
S'6.144'
p4933
sg14
S'6.144'
p4934
sg16
S'sp'
p4935
sg18
g223
sbtp4936
asS'a_uSV'
p4937
(lp4938
(g56
g4
(g5
g6
Ntp4939
Rp4940
(dp4941
g10
g236
sg12
S'2.13'
p4942
sg14
S'2.072'
p4943
sg16
S'uSV'
p4944
sg18
g56
sbtp4945
a(g186
g4
(g5
g6
Ntp4946
Rp4947
(dp4948
g10
g236
sg12
S'11.672'
p4949
sg14
S'11.616'
p4950
sg16
S'uSV'
p4951
sg18
g186
sbtp4952
a(g215
g4
(g5
g6
Ntp4953
Rp4954
(dp4955
g10
g236
sg12
S'7.682'
p4956
sg14
S'7.64'
p4957
sg16
S'uSV'
p4958
sg18
g215
sbtp4959
asS'd_p_cl'
p4960
(lp4961
(g122
g4
(g5
g6
Ntp4962
Rp4963
(dp4964
g10
g546
sg12
S'11.672'
p4965
sg14
S'11.666'
p4966
sg16
S'p_cl'
p4967
sg18
g122
sbtp4968
asS'r_s'
p4969
(lp4970
(g122
g4
(g5
g6
Ntp4971
Rp4972
(dp4973
g10
g290
sg12
S'10.414'
p4974
sg14
S'10.304'
p4975
sg16
g1596
sg18
g122
sbtp4976
a(g215
g4
(g5
g6
Ntp4977
Rp4978
(dp4979
g10
g290
sg12
S'1.748'
p4980
sg14
S'1.636'
p4981
sg16
g1596
sg18
g215
sbtp4982
asS'u_sp'
p4983
(lp4984
(g93
g4
(g5
g6
Ntp4985
Rp4986
(dp4987
g10
g570
sg12
S'2.904'
p4988
sg14
S'2.904'
p4989
sg16
S'sp'
p4990
sg18
g93
sbtp4991
asS'r_i'
p4992
(lp4993
(g56
g4
(g5
g6
Ntp4994
Rp4995
(dp4996
g10
g290
sg12
S'2.49'
p4997
sg14
S'2.456'
p4998
sg16
g253
sg18
g56
sbtp4999
a(g223
g4
(g5
g6
Ntp5000
Rp5001
(dp5002
g10
g290
sg12
S'3.132'
p5003
sg14
S'3.092'
p5004
sg16
g253
sg18
g223
sbtp5005
asS's_eS'
p5006
(lp5007
(g34
g4
(g5
g6
Ntp5008
Rp5009
(dp5010
g10
g1596
sg12
S'9.928'
p5011
sg14
S'9.922'
p5012
sg16
S'eS'
p5013
sg18
g34
sbtp5014
a(g56
g4
(g5
g6
Ntp5015
Rp5016
(dp5017
g10
g1596
sg12
S'9.62'
p5018
sg14
S'9.506'
p5019
sg16
S'eS'
p5020
sg18
g56
sbtp5021
a(g215
g4
(g5
g6
Ntp5022
Rp5023
(dp5024
g10
g1596
sg12
S'2.99'
p5025
sg14
S'2.956'
p5026
sg16
S'eS'
p5027
sg18
g215
sbtp5028
asS'r_l'
p5029
(lp5030
(g215
g4
(g5
g6
Ntp5031
Rp5032
(dp5033
g10
g290
sg12
S'8.852'
p5034
sg14
S'8.762'
p5035
sg16
g273
sg18
g215
sbtp5036
asS'r_m'
p5037
(lp5038
(g71
g4
(g5
g6
Ntp5039
Rp5040
(dp5041
g10
g290
sg12
S'2.35'
p5042
sg14
S'2.26'
p5043
sg16
g1501
sg18
g71
sbtp5044
a(g122
g4
(g5
g6
Ntp5045
Rp5046
(dp5047
g10
g290
sg12
S'6.438'
p5048
sg14
S'6.33'
p5049
sg16
g1501
sg18
g122
sbtp5050
asS't_iS'
p5051
(lp5052
(g122
g4
(g5
g6
Ntp5053
Rp5054
(dp5055
g10
g670
sg12
S'5.396'
p5056
sg14
S'5.196'
p5057
sg16
S'iS'
p5058
sg18
g122
sbtp5059
a(g122
g4
(g5
g6
Ntp5060
Rp5061
(dp5062
g10
g670
sg12
S'11.156'
p5063
sg14
S'11.124'
p5064
sg16
S'iS'
p5065
sg18
g122
sbtp5066
a(g186
g4
(g5
g6
Ntp5067
Rp5068
(dp5069
g10
g670
sg12
S'10.408'
p5070
sg14
S'10.346'
p5071
sg16
S'iS'
p5072
sg18
g186
sbtp5073
a(g215
g4
(g5
g6
Ntp5074
Rp5075
(dp5076
g10
g670
sg12
S'6.454'
p5077
sg14
S'6.444'
p5078
sg16
S'iS'
p5079
sg18
g215
sbtp5080
asS'r_a'
p5081
(lp5082
(g122
g4
(g5
g6
Ntp5083
Rp5084
(dp5085
g10
g290
sg12
S'3.212'
p5086
sg14
S'3.158'
p5087
sg16
g236
sg18
g122
sbtp5088
a(g223
g4
(g5
g6
Ntp5089
Rp5090
(dp5091
g10
g290
sg12
S'3.546'
p5092
sg14
S'3.47'
p5093
sg16
g236
sg18
g223
sbtp5094
asS'r_e'
p5095
(lp5096
(g56
g4
(g5
g6
Ntp5097
Rp5098
(dp5099
g10
g290
sg12
S'7.91'
p5100
sg14
S'7.84'
p5101
sg16
g332
sg18
g56
sbtp5102
a(g56
g4
(g5
g6
Ntp5103
Rp5104
(dp5105
g10
g290
sg12
S'8.356'
p5106
sg14
S'8.274'
p5107
sg16
g332
sg18
g56
sbtp5108
a(g122
g4
(g5
g6
Ntp5109
Rp5110
(dp5111
g10
g290
sg12
S'3.708'
p5112
sg14
S'3.626'
p5113
sg16
g332
sg18
g122
sbtp5114
a(g186
g4
(g5
g6
Ntp5115
Rp5116
(dp5117
g10
g290
sg12
S'12.444'
p5118
sg14
S'12.384'
p5119
sg16
g332
sg18
g186
sbtp5120
a(g223
g4
(g5
g6
Ntp5121
Rp5122
(dp5123
g10
g290
sg12
S'5.498'
p5124
sg14
S'5.416'
p5125
sg16
g332
sg18
g223
sbtp5126
asS'aS_i'
p5127
(lp5128
(g56
g4
(g5
g6
Ntp5129
Rp5130
(dp5131
g10
S'aS'
p5132
sg12
S'8.118'
p5133
sg14
S'8.066'
p5134
sg16
g253
sg18
g56
sbtp5135
asS'aS_h'
p5136
(lp5137
(g122
g4
(g5
g6
Ntp5138
Rp5139
(dp5140
g10
S'aS'
p5141
sg12
S'2.108'
p5142
sg14
S'2.054'
p5143
sg16
g1511
sg18
g122
sbtp5144
a(g186
g4
(g5
g6
Ntp5145
Rp5146
(dp5147
g10
S'aS'
p5148
sg12
S'6.37'
p5149
sg14
S'6.288'
p5150
sg16
g1511
sg18
g186
sbtp5151
a(g186
g4
(g5
g6
Ntp5152
Rp5153
(dp5154
g10
S'aS'
p5155
sg12
S'10.15'
p5156
sg14
S'10.092'
p5157
sg16
g1511
sg18
g186
sbtp5158
asS'e_aS'
p5159
(lp5160
(g34
g4
(g5
g6
Ntp5161
Rp5162
(dp5163
g10
g332
sg12
S'3.784'
p5164
sg14
S'3.616'
p5165
sg16
S'aS'
p5166
sg18
g34
sbtp5167
a(g34
g4
(g5
g6
Ntp5168
Rp5169
(dp5170
g10
g332
sg12
S'6.672'
p5171
sg14
S'6.57'
p5172
sg16
S'aS'
p5173
sg18
g34
sbtp5174
asS'aS_l'
p5175
(lp5176
(g56
g4
(g5
g6
Ntp5177
Rp5178
(dp5179
g10
S'aS'
p5180
sg12
S'3.882'
p5181
sg14
S'3.834'
p5182
sg16
g273
sg18
g56
sbtp5183
a(g56
g4
(g5
g6
Ntp5184
Rp5185
(dp5186
g10
S'aS'
p5187
sg12
S'10.164'
p5188
sg14
S'10.126'
p5189
sg16
g273
sg18
g56
sbtp5190
a(g56
g4
(g5
g6
Ntp5191
Rp5192
(dp5193
g10
S'aS'
p5194
sg12
S'12.328'
p5195
sg14
S'12.176'
p5196
sg16
g273
sg18
g56
sbtp5197
a(g56
g4
(g5
g6
Ntp5198
Rp5199
(dp5200
g10
S'aS'
p5201
sg12
S'12.902'
p5202
sg14
S'12.866'
p5203
sg16
g273
sg18
g56
sbtp5204
a(g71
g4
(g5
g6
Ntp5205
Rp5206
(dp5207
g10
S'aS'
p5208
sg12
S'5.586'
p5209
sg14
S'5.518'
p5210
sg16
g273
sg18
g71
sbtp5211
a(g122
g4
(g5
g6
Ntp5212
Rp5213
(dp5214
g10
S'aS'
p5215
sg12
S'8.112'
p5216
sg14
S'8.064'
p5217
sg16
g273
sg18
g122
sbtp5218
a(g186
g4
(g5
g6
Ntp5219
Rp5220
(dp5221
g10
S'aS'
p5222
sg12
S'5.164'
p5223
sg14
S'5.102'
p5224
sg16
g273
sg18
g186
sbtp5225
asS'aS_n'
p5226
(lp5227
(g3
g4
(g5
g6
Ntp5228
Rp5229
(dp5230
g10
S'aS'
p5231
sg12
S'2.72'
p5232
sg14
S'2.714'
p5233
sg16
g1807
sg18
g3
sbtp5234
a(g34
g4
(g5
g6
Ntp5235
Rp5236
(dp5237
g10
S'aS'
p5238
sg12
S'3.148'
p5239
sg14
S'3.112'
p5240
sg16
g1807
sg18
g34
sbtp5241
a(g34
g4
(g5
g6
Ntp5242
Rp5243
(dp5244
g10
S'aS'
p5245
sg12
S'9.216'
p5246
sg14
S'9.182'
p5247
sg16
g1807
sg18
g34
sbtp5248
a(g71
g4
(g5
g6
Ntp5249
Rp5250
(dp5251
g10
S'aS'
p5252
sg12
S'3.416'
p5253
sg14
S'3.376'
p5254
sg16
g1807
sg18
g71
sbtp5255
a(g186
g4
(g5
g6
Ntp5256
Rp5257
(dp5258
g10
S'aS'
p5259
sg12
S'6.818'
p5260
sg14
S'6.786'
p5261
sg16
g1807
sg18
g186
sbtp5262
asS'aS_f'
p5263
(lp5264
(g93
g4
(g5
g6
Ntp5265
Rp5266
(dp5267
g10
S'aS'
p5268
sg12
S'3.414'
p5269
sg14
S'3.314'
p5270
sg16
g2853
sg18
g93
sbtp5271
asS'n_sp'
p5272
(lp5273
(g3
g4
(g5
g6
Ntp5274
Rp5275
(dp5276
g10
g1807
sg12
S'3.78'
p5277
sg14
S'3.78'
p5278
sg16
S'sp'
p5279
sg18
g3
sbtp5280
a(g3
g4
(g5
g6
Ntp5281
Rp5282
(dp5283
g10
g1807
sg12
S'4.38'
p5284
sg14
S'4.38'
p5285
sg16
S'sp'
p5286
sg18
g3
sbtp5287
a(g3
g4
(g5
g6
Ntp5288
Rp5289
(dp5290
g10
g1807
sg12
S'7.92'
p5291
sg14
S'7.88'
p5292
sg16
S'sp'
p5293
sg18
g3
sbtp5294
a(g3
g4
(g5
g6
Ntp5295
Rp5296
(dp5297
g10
g1807
sg12
S'9.194'
p5298
sg14
S'9.194'
p5299
sg16
S'sp'
p5300
sg18
g3
sbtp5301
a(g3
g4
(g5
g6
Ntp5302
Rp5303
(dp5304
g10
g1807
sg12
S'9.582'
p5305
sg14
S'9.582'
p5306
sg16
S'sp'
p5307
sg18
g3
sbtp5308
a(g56
g4
(g5
g6
Ntp5309
Rp5310
(dp5311
g10
g1807
sg12
S'4.798'
p5312
sg14
S'4.798'
p5313
sg16
S'sp'
p5314
sg18
g56
sbtp5315
a(g71
g4
(g5
g6
Ntp5316
Rp5317
(dp5318
g10
g1807
sg12
S'2.398'
p5319
sg14
S'2.398'
p5320
sg16
S'sp'
p5321
sg18
g71
sbtp5322
a(g93
g4
(g5
g6
Ntp5323
Rp5324
(dp5325
g10
g1807
sg12
S'1.918'
p5326
sg14
S'1.918'
p5327
sg16
S'sp'
p5328
sg18
g93
sbtp5329
a(g122
g4
(g5
g6
Ntp5330
Rp5331
(dp5332
g10
g1807
sg12
S'4.17'
p5333
sg14
S'4.12'
p5334
sg16
S'sp'
p5335
sg18
g122
sbtp5336
a(g122
g4
(g5
g6
Ntp5337
Rp5338
(dp5339
g10
g1807
sg12
S'8.248'
p5340
sg14
S'8.248'
p5341
sg16
S'sp'
p5342
sg18
g122
sbtp5343
a(g122
g4
(g5
g6
Ntp5344
Rp5345
(dp5346
g10
g1807
sg12
S'9.056'
p5347
sg14
S'9.056'
p5348
sg16
S'sp'
p5349
sg18
g122
sbtp5350
a(g186
g4
(g5
g6
Ntp5351
Rp5352
(dp5353
g10
g1807
sg12
S'2.186'
p5354
sg14
S'2.186'
p5355
sg16
S'sp'
p5356
sg18
g186
sbtp5357
a(g186
g4
(g5
g6
Ntp5358
Rp5359
(dp5360
g10
g1807
sg12
S'3.222'
p5361
sg14
S'3.212'
p5362
sg16
S'sp'
p5363
sg18
g186
sbtp5364
a(g186
g4
(g5
g6
Ntp5365
Rp5366
(dp5367
g10
g1807
sg12
S'8.96'
p5368
sg14
S'8.96'
p5369
sg16
S'sp'
p5370
sg18
g186
sbtp5371
a(g223
g4
(g5
g6
Ntp5372
Rp5373
(dp5374
g10
g1807
sg12
S'2.836'
p5375
sg14
S'2.836'
p5376
sg16
S'sp'
p5377
sg18
g223
sbtp5378
a(g223
g4
(g5
g6
Ntp5379
Rp5380
(dp5381
g10
g1807
sg12
S'7.132'
p5382
sg14
S'7.124'
p5383
sg16
S'sp'
p5384
sg18
g223
sbtp5385
asS'bA_iS'
p5386
(lp5387
(g34
g4
(g5
g6
Ntp5388
Rp5389
(dp5390
g10
S'bA'
p5391
sg12
S'2.454'
p5392
sg14
S'2.386'
p5393
sg16
S'iS'
p5394
sg18
g34
sbtp5395
a(g223
g4
(g5
g6
Ntp5396
Rp5397
(dp5398
g10
S'bA'
p5399
sg12
S'6.444'
p5400
sg14
S'6.394'
p5401
sg16
S'iS'
p5402
sg18
g223
sbtp5403
asS'p_uSC'
p5404
(lp5405
(g93
g4
(g5
g6
Ntp5406
Rp5407
(dp5408
g10
g17
sg12
S'2.452'
p5409
sg14
S'2.404'
p5410
sg16
S'uSC'
p5411
sg18
g93
sbtp5412
asS'aS_s'
p5413
(lp5414
(g186
g4
(g5
g6
Ntp5415
Rp5416
(dp5417
g10
S'aS'
p5418
sg12
S'4.224'
p5419
sg14
S'4.134'
p5420
sg16
g1596
sg18
g186
sbtp5421
a(g186
g4
(g5
g6
Ntp5422
Rp5423
(dp5424
g10
S'aS'
p5425
sg12
S'7.28'
p5426
sg14
S'7.186'
p5427
sg16
g1596
sg18
g186
sbtp5428
asS'aS_r'
p5429
(lp5430
(g3
g4
(g5
g6
Ntp5431
Rp5432
(dp5433
g10
S'aS'
p5434
sg12
S'9.476'
p5435
sg14
S'9.436'
p5436
sg16
g290
sg18
g3
sbtp5437
a(g71
g4
(g5
g6
Ntp5438
Rp5439
(dp5440
g10
S'aS'
p5441
sg12
S'3.168'
p5442
sg14
S'3.13'
p5443
sg16
g290
sg18
g71
sbtp5444
a(g71
g4
(g5
g6
Ntp5445
Rp5446
(dp5447
g10
S'aS'
p5448
sg12
S'4.778'
p5449
sg14
S'4.754'
p5450
sg16
g290
sg18
g71
sbtp5451
a(g215
g4
(g5
g6
Ntp5452
Rp5453
(dp5454
g10
S'aS'
p5455
sg12
S'8.762'
p5456
sg14
S'8.686'
p5457
sg16
g290
sg18
g215
sbtp5458
a(g223
g4
(g5
g6
Ntp5459
Rp5460
(dp5461
g10
S'aS'
p5462
sg12
S'3.848'
p5463
sg14
S'3.71'
p5464
sg16
g290
sg18
g223
sbtp5465
a(g223
g4
(g5
g6
Ntp5466
Rp5467
(dp5468
g10
S'aS'
p5469
sg12
S'4.742'
p5470
sg14
S'4.736'
p5471
sg16
g290
sg18
g223
sbtp5472
asS'a_gA'
p5473
(lp5474
(g56
g4
(g5
g6
Ntp5475
Rp5476
(dp5477
g10
g236
sg12
S'4.018'
p5478
sg14
S'3.936'
p5479
sg16
S'gA'
p5480
sg18
g56
sbtp5481
a(g56
g4
(g5
g6
Ntp5482
Rp5483
(dp5484
g10
g236
sg12
S'10.294'
p5485
sg14
S'10.246'
p5486
sg16
S'gA'
p5487
sg18
g56
sbtp5488
a(g56
g4
(g5
g6
Ntp5489
Rp5490
(dp5491
g10
g236
sg12
S'13.058'
p5492
sg14
S'13.052'
p5493
sg16
S'gA'
p5494
sg18
g56
sbtp5495
asS'h_p_cl'
p5496
(lp5497
(g71
g4
(g5
g6
Ntp5498
Rp5499
(dp5500
g10
g1511
sg12
S'4.246'
p5501
sg14
S'4.238'
p5502
sg16
S'p_cl'
p5503
sg18
g71
sbtp5504
a(g122
g4
(g5
g6
Ntp5505
Rp5506
(dp5507
g10
g1511
sg12
S'2.36'
p5508
sg14
S'2.354'
p5509
sg16
S'p_cl'
p5510
sg18
g122
sbtp5511
a(g122
g4
(g5
g6
Ntp5512
Rp5513
(dp5514
g10
g1511
sg12
S'4.366'
p5515
sg14
S'4.36'
p5516
sg16
S'p_cl'
p5517
sg18
g122
sbtp5518
a(g186
g4
(g5
g6
Ntp5519
Rp5520
(dp5521
g10
g1511
sg12
S'3.926'
p5522
sg14
S'3.92'
p5523
sg16
S'p_cl'
p5524
sg18
g186
sbtp5525
asS'a_iS'
p5526
(lp5527
(g34
g4
(g5
g6
Ntp5528
Rp5529
(dp5530
g10
g236
sg12
S'5.728'
p5531
sg14
S'5.646'
p5532
sg16
S'iS'
p5533
sg18
g34
sbtp5534
a(g186
g4
(g5
g6
Ntp5535
Rp5536
(dp5537
g10
g236
sg12
S'2.67'
p5538
sg14
S'2.552'
p5539
sg16
S'iS'
p5540
sg18
g186
sbtp5541
asS'oS_sp'
p5542
(lp5543
(g71
g4
(g5
g6
Ntp5544
Rp5545
(dp5546
g10
S'oS'
p5547
sg12
S'2.688'
p5548
sg14
S'2.688'
p5549
sg16
S'sp'
p5550
sg18
g71
sbtp5551
a(g223
g4
(g5
g6
Ntp5552
Rp5553
(dp5554
g10
S'oS'
p5555
sg12
S'4.372'
p5556
sg14
S'4.372'
p5557
sg16
S'sp'
p5558
sg18
g223
sbtp5559
asS'n_aS'
p5560
(lp5561
(g71
g4
(g5
g6
Ntp5562
Rp5563
(dp5564
g10
g1807
sg12
S'5.518'
p5565
sg14
S'5.45'
p5566
sg16
S'aS'
p5567
sg18
g71
sbtp5568
a(g215
g4
(g5
g6
Ntp5569
Rp5570
(dp5571
g10
g1807
sg12
S'4.904'
p5572
sg14
S'4.672'
p5573
sg16
S'aS'
p5574
sg18
g215
sbtp5575
asS'sp_rr'
p5576
(lp5577
(g3
g4
(g5
g6
Ntp5578
Rp5579
(dp5580
g10
S'sp'
p5581
sg12
S'6.66'
p5582
sg14
S'6.566'
p5583
sg16
S'rr'
p5584
sg18
g3
sbtp5585
a(g3
g4
(g5
g6
Ntp5586
Rp5587
(dp5588
g10
S'sp'
p5589
sg12
S'8.102'
p5590
sg14
S'7.988'
p5591
sg16
S'rr'
p5592
sg18
g3
sbtp5593
a(g122
g4
(g5
g6
Ntp5594
Rp5595
(dp5596
g10
S'sp'
p5597
sg12
S'2.322'
p5598
sg14
S'2.24'
p5599
sg16
S'rr'
p5600
sg18
g122
sbtp5601
a(g122
g4
(g5
g6
Ntp5602
Rp5603
(dp5604
g10
S'sp'
p5605
sg12
S'6.144'
p5606
sg14
S'6.056'
p5607
sg16
S'rr'
p5608
sg18
g122
sbtp5609
a(g223
g4
(g5
g6
Ntp5610
Rp5611
(dp5612
g10
S'sp'
p5613
sg12
S'6.338'
p5614
sg14
S'6.246'
p5615
sg16
S'rr'
p5616
sg18
g223
sbtp5617
a(g223
g4
(g5
g6
Ntp5618
Rp5619
(dp5620
g10
S'sp'
p5621
sg12
S'6.754'
p5622
sg14
S'6.674'
p5623
sg16
S'rr'
p5624
sg18
g223
sbtp5625
asS'g_uS'
p5626
(lp5627
(g122
g4
(g5
g6
Ntp5628
Rp5629
(dp5630
g10
S'g'
p5631
sg12
S'10.952'
p5632
sg14
S'10.888'
p5633
sg16
S'uS'
p5634
sg18
g122
sbtp5635
asS'uSC_u'
p5636
(lp5637
(g215
g4
(g5
g6
Ntp5638
Rp5639
(dp5640
g10
S'uSC'
p5641
sg12
S'1.6'
p5642
sg14
S'1.548'
p5643
sg16
g570
sg18
g215
sbtp5644
asS's_bA'
p5645
(lp5646
(g215
g4
(g5
g6
Ntp5647
Rp5648
(dp5649
g10
g1596
sg12
S'1.842'
p5650
sg14
S'1.748'
p5651
sg16
S'bA'
p5652
sg18
g215
sbtp5653
asS'uSC_a'
p5654
(lp5655
(g56
g4
(g5
g6
Ntp5656
Rp5657
(dp5658
g10
S'uSC'
p5659
sg12
S'5.796'
p5660
sg14
S'5.78'
p5661
sg16
g236
sg18
g56
sbtp5662
a(g56
g4
(g5
g6
Ntp5663
Rp5664
(dp5665
g10
S'uSC'
p5666
sg12
S'8.566'
p5667
sg14
S'8.554'
p5668
sg16
g236
sg18
g56
sbtp5669
a(g56
g4
(g5
g6
Ntp5670
Rp5671
(dp5672
g10
S'uSC'
p5673
sg12
S'11.24'
p5674
sg14
S'11.234'
p5675
sg16
g236
sg18
g56
sbtp5676
a(g186
g4
(g5
g6
Ntp5677
Rp5678
(dp5679
g10
S'uSC'
p5680
sg12
S'10.638'
p5681
sg14
S'10.528'
p5682
sg16
g236
sg18
g186
sbtp5683
asS'uS_k_cl'
p5684
(lp5685
(g34
g4
(g5
g6
Ntp5686
Rp5687
(dp5688
g10
S'uS'
p5689
sg12
S'7.462'
p5690
sg14
S'7.456'
p5691
sg16
S'k_cl'
p5692
sg18
g34
sbtp5693
asS'uSC_e'
p5694
(lp5695
(g56
g4
(g5
g6
Ntp5696
Rp5697
(dp5698
g10
S'uSC'
p5699
sg12
S'4.248'
p5700
sg14
S'4.242'
p5701
sg16
g332
sg18
g56
sbtp5702
a(g93
g4
(g5
g6
Ntp5703
Rp5704
(dp5705
g10
S'uSC'
p5706
sg12
S'1.828'
p5707
sg14
S'1.822'
p5708
sg16
g332
sg18
g93
sbtp5709
a(g186
g4
(g5
g6
Ntp5710
Rp5711
(dp5712
g10
S'uSC'
p5713
sg12
S'3.542'
p5714
sg14
S'3.536'
p5715
sg16
g332
sg18
g186
sbtp5716
a(g215
g4
(g5
g6
Ntp5717
Rp5718
(dp5719
g10
S'uSC'
p5720
sg12
S'2.392'
p5721
sg14
S'2.386'
p5722
sg16
g332
sg18
g215
sbtp5723
a(g215
g4
(g5
g6
Ntp5724
Rp5725
(dp5726
g10
S'uSC'
p5727
sg12
S'6.746'
p5728
sg14
S'6.738'
p5729
sg16
g332
sg18
g215
sbtp5730
asS'e_s'
p5731
(lp5732
(g3
g4
(g5
g6
Ntp5733
Rp5734
(dp5735
g10
g332
sg12
S'3.278'
p5736
sg14
S'3.148'
p5737
sg16
g1596
sg18
g3
sbtp5738
a(g3
g4
(g5
g6
Ntp5739
Rp5740
(dp5741
g10
g332
sg12
S'8.208'
p5742
sg14
S'8.108'
p5743
sg16
g1596
sg18
g3
sbtp5744
a(g56
g4
(g5
g6
Ntp5745
Rp5746
(dp5747
g10
g332
sg12
S'5.244'
p5748
sg14
S'5.118'
p5749
sg16
g1596
sg18
g56
sbtp5750
a(g56
g4
(g5
g6
Ntp5751
Rp5752
(dp5753
g10
g332
sg12
S'7.524'
p5754
sg14
S'7.42'
p5755
sg16
g1596
sg18
g56
sbtp5756
a(g186
g4
(g5
g6
Ntp5757
Rp5758
(dp5759
g10
g332
sg12
S'13.536'
p5760
sg14
S'13.412'
p5761
sg16
g1596
sg18
g186
sbtp5762
a(g186
g4
(g5
g6
Ntp5763
Rp5764
(dp5765
g10
g332
sg12
S'13.95'
p5766
sg14
S'13.838'
p5767
sg16
g1596
sg18
g186
sbtp5768
a(g215
g4
(g5
g6
Ntp5769
Rp5770
(dp5771
g10
g332
sg12
S'4.558'
p5772
sg14
S'4.422'
p5773
sg16
g1596
sg18
g215
sbtp5774
asS'e_r'
p5775
(lp5776
(g34
g4
(g5
g6
Ntp5777
Rp5778
(dp5779
g10
g332
sg12
S'2.33'
p5780
sg14
S'2.256'
p5781
sg16
g290
sg18
g34
sbtp5782
a(g71
g4
(g5
g6
Ntp5783
Rp5784
(dp5785
g10
g332
sg12
S'2.26'
p5786
sg14
S'2.172'
p5787
sg16
g290
sg18
g71
sbtp5788
asS'oS_n'
p5789
(lp5790
(g3
g4
(g5
g6
Ntp5791
Rp5792
(dp5793
g10
S'oS'
p5794
sg12
S'7.88'
p5795
sg14
S'7.776'
p5796
sg16
g1807
sg18
g3
sbtp5797
a(g3
g4
(g5
g6
Ntp5798
Rp5799
(dp5800
g10
S'oS'
p5801
sg12
S'8.738'
p5802
sg14
S'8.666'
p5803
sg16
g1807
sg18
g3
sbtp5804
a(g71
g4
(g5
g6
Ntp5805
Rp5806
(dp5807
g10
S'oS'
p5808
sg12
S'5.944'
p5809
sg14
S'5.88'
p5810
sg16
g1807
sg18
g71
sbtp5811
a(g93
g4
(g5
g6
Ntp5812
Rp5813
(dp5814
g10
S'oS'
p5815
sg12
S'4.086'
p5816
sg14
S'4.026'
p5817
sg16
g1807
sg18
g93
sbtp5818
a(g122
g4
(g5
g6
Ntp5819
Rp5820
(dp5821
g10
S'oS'
p5822
sg12
S'2.534'
p5823
sg14
S'2.524'
p5824
sg16
g1807
sg18
g122
sbtp5825
a(g122
g4
(g5
g6
Ntp5826
Rp5827
(dp5828
g10
S'oS'
p5829
sg12
S'4.12'
p5830
sg14
S'4.07'
p5831
sg16
g1807
sg18
g122
sbtp5832
asS'e_x'
p5833
(lp5834
(g93
g4
(g5
g6
Ntp5835
Rp5836
(dp5837
g10
g332
sg12
S'4.618'
p5838
sg14
S'4.44'
p5839
sg16
g1944
sg18
g93
sbtp5840
asS'e_f'
p5841
(lp5842
(g3
g4
(g5
g6
Ntp5843
Rp5844
(dp5845
g10
g332
sg12
S'6.772'
p5846
sg14
S'6.668'
p5847
sg16
g2853
sg18
g3
sbtp5848
a(g122
g4
(g5
g6
Ntp5849
Rp5850
(dp5851
g10
g332
sg12
S'6.242'
p5852
sg14
S'6.15'
p5853
sg16
g2853
sg18
g122
sbtp5854
asS'a_b_cl'
p5855
(lp5856
(g34
g4
(g5
g6
Ntp5857
Rp5858
(dp5859
g10
g236
sg12
S'4.61'
p5860
sg14
S'4.572'
p5861
sg16
S'b_cl'
p5862
sg18
g34
sbtp5863
a(g122
g4
(g5
g6
Ntp5864
Rp5865
(dp5866
g10
g236
sg12
S'9.314'
p5867
sg14
S'9.268'
p5868
sg16
S'b_cl'
p5869
sg18
g122
sbtp5870
asS'oS_r'
p5871
(lp5872
(g34
g4
(g5
g6
Ntp5873
Rp5874
(dp5875
g10
S'oS'
p5876
sg12
S'2.906'
p5877
sg14
S'2.862'
p5878
sg16
g290
sg18
g34
sbtp5879
asS'e_i'
p5880
(lp5881
(g56
g4
(g5
g6
Ntp5882
Rp5883
(dp5884
g10
g332
sg12
S'7.916'
p5885
sg14
S'7.91'
p5886
sg16
g253
sg18
g56
sbtp5887
a(g186
g4
(g5
g6
Ntp5888
Rp5889
(dp5890
g10
g332
sg12
S'3.914'
p5891
sg14
S'3.906'
p5892
sg16
g253
sg18
g186
sbtp5893
a(g186
g4
(g5
g6
Ntp5894
Rp5895
(dp5896
g10
g332
sg12
S'14.476'
p5897
sg14
S'14.438'
p5898
sg16
g253
sg18
g186
sbtp5899
asS'e_h'
p5900
(lp5901
(g3
g4
(g5
g6
Ntp5902
Rp5903
(dp5904
g10
g332
sg12
S'4.662'
p5905
sg14
S'4.622'
p5906
sg16
g1511
sg18
g3
sbtp5907
a(g3
g4
(g5
g6
Ntp5908
Rp5909
(dp5910
g10
g332
sg12
S'11.79'
p5911
sg14
S'11.668'
p5912
sg16
g1511
sg18
g3
sbtp5913
a(g34
g4
(g5
g6
Ntp5914
Rp5915
(dp5916
g10
g332
sg12
S'2.55'
p5917
sg14
S'2.466'
p5918
sg16
g1511
sg18
g34
sbtp5919
a(g34
g4
(g5
g6
Ntp5920
Rp5921
(dp5922
g10
g332
sg12
S'5.106'
p5923
sg14
S'5.038'
p5924
sg16
g1511
sg18
g34
sbtp5925
a(g56
g4
(g5
g6
Ntp5926
Rp5927
(dp5928
g10
g332
sg12
S'6.938'
p5929
sg14
S'6.862'
p5930
sg16
g1511
sg18
g56
sbtp5931
a(g56
g4
(g5
g6
Ntp5932
Rp5933
(dp5934
g10
g332
sg12
S'8.424'
p5935
sg14
S'8.356'
p5936
sg16
g1511
sg18
g56
sbtp5937
a(g56
g4
(g5
g6
Ntp5938
Rp5939
(dp5940
g10
g332
sg12
S'14.362'
p5941
sg14
S'14.25'
p5942
sg16
g1511
sg18
g56
sbtp5943
a(g122
g4
(g5
g6
Ntp5944
Rp5945
(dp5946
g10
g332
sg12
S'2.354'
p5947
sg14
S'2.328'
p5948
sg16
g1511
sg18
g122
sbtp5949
a(g122
g4
(g5
g6
Ntp5950
Rp5951
(dp5952
g10
g332
sg12
S'4.36'
p5953
sg14
S'4.318'
p5954
sg16
g1511
sg18
g122
sbtp5955
a(g186
g4
(g5
g6
Ntp5956
Rp5957
(dp5958
g10
g332
sg12
S'5.318'
p5959
sg14
S'5.184'
p5960
sg16
g1511
sg18
g186
sbtp5961
a(g223
g4
(g5
g6
Ntp5962
Rp5963
(dp5964
g10
g332
sg12
S'6.092'
p5965
sg14
S'5.99'
p5966
sg16
g1511
sg18
g223
sbtp5967
asS'e_n'
p5968
(lp5969
(g3
g4
(g5
g6
Ntp5970
Rp5971
(dp5972
g10
g332
sg12
S'2.396'
p5973
sg14
S'2.384'
p5974
sg16
g1807
sg18
g3
sbtp5975
a(g3
g4
(g5
g6
Ntp5976
Rp5977
(dp5978
g10
g332
sg12
S'6.974'
p5979
sg14
S'6.96'
p5980
sg16
g1807
sg18
g3
sbtp5981
a(g3
g4
(g5
g6
Ntp5982
Rp5983
(dp5984
g10
g332
sg12
S'9.194'
p5985
sg14
S'9.188'
p5986
sg16
g1807
sg18
g3
sbtp5987
a(g3
g4
(g5
g6
Ntp5988
Rp5989
(dp5990
g10
g332
sg12
S'9.582'
p5991
sg14
S'9.528'
p5992
sg16
g1807
sg18
g3
sbtp5993
a(g34
g4
(g5
g6
Ntp5994
Rp5995
(dp5996
g10
g332
sg12
S'8.538'
p5997
sg14
S'8.518'
p5998
sg16
g1807
sg18
g34
sbtp5999
a(g56
g4
(g5
g6
Ntp6000
Rp6001
(dp6002
g10
g332
sg12
S'4.798'
p6003
sg14
S'4.764'
p6004
sg16
g1807
sg18
g56
sbtp6005
a(g122
g4
(g5
g6
Ntp6006
Rp6007
(dp6008
g10
g332
sg12
S'3.726'
p6009
sg14
S'3.708'
p6010
sg16
g1807
sg18
g122
sbtp6011
a(g122
g4
(g5
g6
Ntp6012
Rp6013
(dp6014
g10
g332
sg12
S'8.248'
p6015
sg14
S'8.176'
p6016
sg16
g1807
sg18
g122
sbtp6017
a(g186
g4
(g5
g6
Ntp6018
Rp6019
(dp6020
g10
g332
sg12
S'2.186'
p6021
sg14
S'2.136'
p6022
sg16
g1807
sg18
g186
sbtp6023
a(g186
g4
(g5
g6
Ntp6024
Rp6025
(dp6026
g10
g332
sg12
S'3.212'
p6027
sg14
S'3.206'
p6028
sg16
g1807
sg18
g186
sbtp6029
a(g186
g4
(g5
g6
Ntp6030
Rp6031
(dp6032
g10
g332
sg12
S'3.576'
p6033
sg14
S'3.542'
p6034
sg16
g1807
sg18
g186
sbtp6035
a(g186
g4
(g5
g6
Ntp6036
Rp6037
(dp6038
g10
g332
sg12
S'8.96'
p6039
sg14
S'8.938'
p6040
sg16
g1807
sg18
g186
sbtp6041
a(g186
g4
(g5
g6
Ntp6042
Rp6043
(dp6044
g10
g332
sg12
S'12.776'
p6045
sg14
S'12.712'
p6046
sg16
g1807
sg18
g186
sbtp6047
a(g186
g4
(g5
g6
Ntp6048
Rp6049
(dp6050
g10
g332
sg12
S'14.012'
p6051
sg14
S'13.972'
p6052
sg16
g1807
sg18
g186
sbtp6053
a(g223
g4
(g5
g6
Ntp6054
Rp6055
(dp6056
g10
g332
sg12
S'5.288'
p6057
sg14
S'5.256'
p6058
sg16
g1807
sg18
g223
sbtp6059
asS'e_m'
p6060
(lp6061
(g34
g4
(g5
g6
Ntp6062
Rp6063
(dp6064
g10
g332
sg12
S'4.824'
p6065
sg14
S'4.752'
p6066
sg16
g1501
sg18
g34
sbtp6067
a(g34
g4
(g5
g6
Ntp6068
Rp6069
(dp6070
g10
g332
sg12
S'8.75'
p6071
sg14
S'8.694'
p6072
sg16
g1501
sg18
g34
sbtp6073
a(g71
g4
(g5
g6
Ntp6074
Rp6075
(dp6076
g10
g332
sg12
S'2.702'
p6077
sg14
S'2.694'
p6078
sg16
g1501
sg18
g71
sbtp6079
a(g122
g4
(g5
g6
Ntp6080
Rp6081
(dp6082
g10
g332
sg12
S'9.52'
p6083
sg14
S'9.44'
p6084
sg16
g1501
sg18
g122
sbtp6085
asS'e_l'
p6086
(lp6087
(g3
g4
(g5
g6
Ntp6088
Rp6089
(dp6090
g10
g332
sg12
S'9.658'
p6091
sg14
S'9.62'
p6092
sg16
g273
sg18
g3
sbtp6093
a(g34
g4
(g5
g6
Ntp6094
Rp6095
(dp6096
g10
g332
sg12
S'2.072'
p6097
sg14
S'2.016'
p6098
sg16
g273
sg18
g34
sbtp6099
a(g56
g4
(g5
g6
Ntp6100
Rp6101
(dp6102
g10
g332
sg12
S'2.318'
p6103
sg14
S'2.282'
p6104
sg16
g273
sg18
g56
sbtp6105
a(g56
g4
(g5
g6
Ntp6106
Rp6107
(dp6108
g10
g332
sg12
S'9.32'
p6109
sg14
S'9.186'
p6110
sg16
g273
sg18
g56
sbtp6111
a(g56
g4
(g5
g6
Ntp6112
Rp6113
(dp6114
g10
g332
sg12
S'10.99'
p6115
sg14
S'10.952'
p6116
sg16
g273
sg18
g56
sbtp6117
a(g56
g4
(g5
g6
Ntp6118
Rp6119
(dp6120
g10
g332
sg12
S'11.818'
p6121
sg14
S'11.768'
p6122
sg16
g273
sg18
g56
sbtp6123
a(g186
g4
(g5
g6
Ntp6124
Rp6125
(dp6126
g10
g332
sg12
S'12.262'
p6127
sg14
S'12.21'
p6128
sg16
g273
sg18
g186
sbtp6129
a(g215
g4
(g5
g6
Ntp6130
Rp6131
(dp6132
g10
g332
sg12
S'4.114'
p6133
sg14
S'4.096'
p6134
sg16
g273
sg18
g215
sbtp6135
a(g215
g4
(g5
g6
Ntp6136
Rp6137
(dp6138
g10
g332
sg12
S'5.006'
p6139
sg14
S'4.95'
p6140
sg16
g273
sg18
g215
sbtp6141
a(g215
g4
(g5
g6
Ntp6142
Rp6143
(dp6144
g10
g332
sg12
S'6.156'
p6145
sg14
S'6.136'
p6146
sg16
g273
sg18
g215
sbtp6147
asS'u_p_cl'
p6148
(lp6149
(g223
g4
(g5
g6
Ntp6150
Rp6151
(dp6152
g10
g570
sg12
S'2.996'
p6153
sg14
S'2.974'
p6154
sg16
S'p_cl'
p6155
sg18
g223
sbtp6156
asS'eS_n'
p6157
(lp6158
(g3
g4
(g5
g6
Ntp6159
Rp6160
(dp6161
g10
S'eS'
p6162
sg12
S'9.182'
p6163
sg14
S'9.172'
p6164
sg16
g1807
sg18
g3
sbtp6165
a(g34
g4
(g5
g6
Ntp6166
Rp6167
(dp6168
g10
S'eS'
p6169
sg12
S'4.902'
p6170
sg14
S'4.87'
p6171
sg16
g1807
sg18
g34
sbtp6172
a(g34
g4
(g5
g6
Ntp6173
Rp6174
(dp6175
g10
S'eS'
p6176
sg12
S'8.806'
p6177
sg14
S'8.796'
p6178
sg16
g1807
sg18
g34
sbtp6179
a(g56
g4
(g5
g6
Ntp6180
Rp6181
(dp6182
g10
S'eS'
p6183
sg12
S'5.34'
p6184
sg14
S'5.3'
p6185
sg16
g1807
sg18
g56
sbtp6186
a(g56
g4
(g5
g6
Ntp6187
Rp6188
(dp6189
g10
S'eS'
p6190
sg12
S'7.568'
p6191
sg14
S'7.554'
p6192
sg16
g1807
sg18
g56
sbtp6193
a(g122
g4
(g5
g6
Ntp6194
Rp6195
(dp6196
g10
S'eS'
p6197
sg12
S'9.592'
p6198
sg14
S'9.57'
p6199
sg16
g1807
sg18
g122
sbtp6200
a(g186
g4
(g5
g6
Ntp6201
Rp6202
(dp6203
g10
S'eS'
p6204
sg12
S'6.014'
p6205
sg14
S'5.968'
p6206
sg16
g1807
sg18
g186
sbtp6207
a(g186
g4
(g5
g6
Ntp6208
Rp6209
(dp6210
g10
S'eS'
p6211
sg12
S'13.608'
p6212
sg14
S'13.588'
p6213
sg16
g1807
sg18
g186
sbtp6214
a(g215
g4
(g5
g6
Ntp6215
Rp6216
(dp6217
g10
S'eS'
p6218
sg12
S'3.034'
p6219
sg14
S'2.99'
p6220
sg16
g1807
sg18
g215
sbtp6221
a(g215
g4
(g5
g6
Ntp6222
Rp6223
(dp6224
g10
S'eS'
p6225
sg12
S'3.866'
p6226
sg14
S'3.858'
p6227
sg16
g1807
sg18
g215
sbtp6228
asS'o_r'
p6229
(lp6230
(g34
g4
(g5
g6
Ntp6231
Rp6232
(dp6233
g10
g429
sg12
S'10.156'
p6234
sg14
S'10.11'
p6235
sg16
g290
sg18
g34
sbtp6236
a(g34
g4
(g5
g6
Ntp6237
Rp6238
(dp6239
g10
g429
sg12
S'10.58'
p6240
sg14
S'10.54'
p6241
sg16
g290
sg18
g34
sbtp6242
a(g93
g4
(g5
g6
Ntp6243
Rp6244
(dp6245
g10
g429
sg12
S'2.74'
p6246
sg14
S'2.706'
p6247
sg16
g290
sg18
g93
sbtp6248
a(g93
g4
(g5
g6
Ntp6249
Rp6250
(dp6251
g10
g429
sg12
S'5.838'
p6252
sg14
S'5.798'
p6253
sg16
g290
sg18
g93
sbtp6254
a(g122
g4
(g5
g6
Ntp6255
Rp6256
(dp6257
g10
g429
sg12
S'6.33'
p6258
sg14
S'6.28'
p6259
sg16
g290
sg18
g122
sbtp6260
a(g186
g4
(g5
g6
Ntp6261
Rp6262
(dp6263
g10
g429
sg12
S'6.612'
p6264
sg14
S'6.558'
p6265
sg16
g290
sg18
g186
sbtp6266
asS'r_sp'
p6267
(lp6268
(g3
g4
(g5
g6
Ntp6269
Rp6270
(dp6271
g10
g290
sg12
S'9.476'
p6272
sg14
S'9.476'
p6273
sg16
S'sp'
p6274
sg18
g3
sbtp6275
a(g34
g4
(g5
g6
Ntp6276
Rp6277
(dp6278
g10
g290
sg12
S'2.906'
p6279
sg14
S'2.906'
p6280
sg16
S'sp'
p6281
sg18
g34
sbtp6282
a(g34
g4
(g5
g6
Ntp6283
Rp6284
(dp6285
g10
g290
sg12
S'10.58'
p6286
sg14
S'10.58'
p6287
sg16
S'sp'
p6288
sg18
g34
sbtp6289
a(g56
g4
(g5
g6
Ntp6290
Rp6291
(dp6292
g10
g290
sg12
S'2.626'
p6293
sg14
S'2.626'
p6294
sg16
S'sp'
p6295
sg18
g56
sbtp6296
a(g71
g4
(g5
g6
Ntp6297
Rp6298
(dp6299
g10
g290
sg12
S'3.168'
p6300
sg14
S'3.168'
p6301
sg16
S'sp'
p6302
sg18
g71
sbtp6303
a(g71
g4
(g5
g6
Ntp6304
Rp6305
(dp6306
g10
g290
sg12
S'4.778'
p6307
sg14
S'4.778'
p6308
sg16
S'sp'
p6309
sg18
g71
sbtp6310
a(g93
g4
(g5
g6
Ntp6311
Rp6312
(dp6313
g10
g290
sg12
S'2.74'
p6314
sg14
S'2.74'
p6315
sg16
S'sp'
p6316
sg18
g93
sbtp6317
a(g93
g4
(g5
g6
Ntp6318
Rp6319
(dp6320
g10
g290
sg12
S'5.838'
p6321
sg14
S'5.838'
p6322
sg16
S'sp'
p6323
sg18
g93
sbtp6324
a(g223
g4
(g5
g6
Ntp6325
Rp6326
(dp6327
g10
g290
sg12
S'4.742'
p6328
sg14
S'4.742'
p6329
sg16
S'sp'
p6330
sg18
g223
sbtp6331
asS'sp_eS'
p6332
(lp6333
(g122
g4
(g5
g6
Ntp6334
Rp6335
(dp6336
g10
S'sp'
p6337
sg12
S'7.702'
p6338
sg14
S'7.642'
p6339
sg16
S'eS'
p6340
sg18
g122
sbtp6341
a(g122
g4
(g5
g6
Ntp6342
Rp6343
(dp6344
g10
S'sp'
p6345
sg12
S'8.318'
p6346
sg14
S'8.248'
p6347
sg16
S'eS'
p6348
sg18
g122
sbtp6349
a(g186
g4
(g5
g6
Ntp6350
Rp6351
(dp6352
g10
S'sp'
p6353
sg12
S'2.224'
p6354
sg14
S'2.186'
p6355
sg16
S'eS'
p6356
sg18
g186
sbtp6357
asS'o_f'
p6358
(lp6359
(g186
g4
(g5
g6
Ntp6360
Rp6361
(dp6362
g10
g429
sg12
S'4.84'
p6363
sg14
S'4.732'
p6364
sg16
g2853
sg18
g186
sbtp6365
asS'uS_b_cl'
p6366
(lp6367
(g56
g4
(g5
g6
Ntp6368
Rp6369
(dp6370
g10
S'uS'
p6371
sg12
S'13.34'
p6372
sg14
S'13.334'
p6373
sg16
S'b_cl'
p6374
sg18
g56
sbtp6375
asS'o_l'
p6376
(lp6377
(g34
g4
(g5
g6
Ntp6378
Rp6379
(dp6380
g10
g429
sg12
S'2.802'
p6381
sg14
S'2.74'
p6382
sg16
g273
sg18
g34
sbtp6383
a(g56
g4
(g5
g6
Ntp6384
Rp6385
(dp6386
g10
g429
sg12
S'13.99'
p6387
sg14
S'13.866'
p6388
sg16
g273
sg18
g56
sbtp6389
asS'o_n'
p6390
(lp6391
(g34
g4
(g5
g6
Ntp6392
Rp6393
(dp6394
g10
g429
sg12
S'4.514'
p6395
sg14
S'4.486'
p6396
sg16
g1807
sg18
g34
sbtp6397
a(g93
g4
(g5
g6
Ntp6398
Rp6399
(dp6400
g10
g429
sg12
S'6.642'
p6401
sg14
S'6.59'
p6402
sg16
g1807
sg18
g93
sbtp6403
a(g122
g4
(g5
g6
Ntp6404
Rp6405
(dp6406
g10
g429
sg12
S'2.786'
p6407
sg14
S'2.778'
p6408
sg16
g1807
sg18
g122
sbtp6409
a(g215
g4
(g5
g6
Ntp6410
Rp6411
(dp6412
g10
g429
sg12
S'8.17'
p6413
sg14
S'8.162'
p6414
sg16
g1807
sg18
g215
sbtp6415
a(g223
g4
(g5
g6
Ntp6416
Rp6417
(dp6418
g10
g429
sg12
S'2.836'
p6419
sg14
S'2.826'
p6420
sg16
g1807
sg18
g223
sbtp6421
a(g223
g4
(g5
g6
Ntp6422
Rp6423
(dp6424
g10
g429
sg12
S'7.124'
p6425
sg14
S'6.952'
p6426
sg16
g1807
sg18
g223
sbtp6427
asS'o_h'
p6428
(lp6429
(g3
g4
(g5
g6
Ntp6430
Rp6431
(dp6432
g10
g429
sg12
S'5.834'
p6433
sg14
S'5.73'
p6434
sg16
g1511
sg18
g3
sbtp6435
a(g3
g4
(g5
g6
Ntp6436
Rp6437
(dp6438
g10
g429
sg12
S'10.896'
p6439
sg14
S'10.87'
p6440
sg16
g1511
sg18
g3
sbtp6441
a(g56
g4
(g5
g6
Ntp6442
Rp6443
(dp6444
g10
g429
sg12
S'5.482'
p6445
sg14
S'5.436'
p6446
sg16
g1511
sg18
g56
sbtp6447
a(g56
g4
(g5
g6
Ntp6448
Rp6449
(dp6450
g10
g429
sg12
S'7.718'
p6451
sg14
S'7.666'
p6452
sg16
g1511
sg18
g56
sbtp6453
a(g71
g4
(g5
g6
Ntp6454
Rp6455
(dp6456
g10
g429
sg12
S'3.762'
p6457
sg14
S'3.756'
p6458
sg16
g1511
sg18
g71
sbtp6459
a(g71
g4
(g5
g6
Ntp6460
Rp6461
(dp6462
g10
g429
sg12
S'4.238'
p6463
sg14
S'4.188'
p6464
sg16
g1511
sg18
g71
sbtp6465
a(g186
g4
(g5
g6
Ntp6466
Rp6467
(dp6468
g10
g429
sg12
S'4.726'
p6469
sg14
S'4.64'
p6470
sg16
g1511
sg18
g186
sbtp6471
a(g186
g4
(g5
g6
Ntp6472
Rp6473
(dp6474
g10
g429
sg12
S'7.724'
p6475
sg14
S'7.654'
p6476
sg16
g1511
sg18
g186
sbtp6477
a(g186
g4
(g5
g6
Ntp6478
Rp6479
(dp6480
g10
g429
sg12
S'13.73'
p6481
sg14
S'13.7'
p6482
sg16
g1511
sg18
g186
sbtp6483
a(g215
g4
(g5
g6
Ntp6484
Rp6485
(dp6486
g10
g429
sg12
S'2.822'
p6487
sg14
S'2.792'
p6488
sg16
g1511
sg18
g215
sbtp6489
a(g215
g4
(g5
g6
Ntp6490
Rp6491
(dp6492
g10
g429
sg12
S'3.254'
p6493
sg14
S'3.16'
p6494
sg16
g1511
sg18
g215
sbtp6495
a(g223
g4
(g5
g6
Ntp6496
Rp6497
(dp6498
g10
g429
sg12
S'5.684'
p6499
sg14
S'5.596'
p6500
sg16
g1511
sg18
g223
sbtp6501
asS'uS_ch_cl'
p6502
(lp6503
(g3
g4
(g5
g6
Ntp6504
Rp6505
(dp6506
g10
S'uS'
p6507
sg12
S'1.904'
p6508
sg14
S'1.89'
p6509
sg16
S'ch_cl'
p6510
sg18
g3
sbtp6511
asS's_iS'
p6512
(lp6513
(g3
g4
(g5
g6
Ntp6514
Rp6515
(dp6516
g10
g1596
sg12
S'7.134'
p6517
sg14
S'7.102'
p6518
sg16
S'iS'
p6519
sg18
g3
sbtp6520
a(g93
g4
(g5
g6
Ntp6521
Rp6522
(dp6523
g10
g1596
sg12
S'5.606'
p6524
sg14
S'5.496'
p6525
sg16
S'iS'
p6526
sg18
g93
sbtp6527
a(g186
g4
(g5
g6
Ntp6528
Rp6529
(dp6530
g10
g1596
sg12
S'3.072'
p6531
sg14
S'3.046'
p6532
sg16
S'iS'
p6533
sg18
g186
sbtp6534
a(g215
g4
(g5
g6
Ntp6535
Rp6536
(dp6537
g10
g1596
sg12
S'5.262'
p6538
sg14
S'5.158'
p6539
sg16
S'iS'
p6540
sg18
g215
sbtp6541
asS'iS_sp'
p6542
(lp6543
(g93
g4
(g5
g6
Ntp6544
Rp6545
(dp6546
g10
S'iS'
p6547
sg12
S'5.606'
p6548
sg14
S'5.606'
p6549
sg16
S'sp'
p6550
sg18
g93
sbtp6551
a(g122
g4
(g5
g6
Ntp6552
Rp6553
(dp6554
g10
S'iS'
p6555
sg12
S'5.396'
p6556
sg14
S'5.396'
p6557
sg16
S'sp'
p6558
sg18
g122
sbtp6559
asS'a_bA'
p6560
(lp6561
(g122
g4
(g5
g6
Ntp6562
Rp6563
(dp6564
g10
g236
sg12
S'7.828'
p6565
sg14
S'7.816'
p6566
sg16
S'bA'
p6567
sg18
g122
sbtp6568
asS'rr_e'
p6569
(lp6570
(g3
g4
(g5
g6
Ntp6571
Rp6572
(dp6573
g10
S'rr'
p6574
sg12
S'6.668'
p6575
sg14
S'6.66'
p6576
sg16
g332
sg18
g3
sbtp6577
a(g3
g4
(g5
g6
Ntp6578
Rp6579
(dp6580
g10
S'rr'
p6581
sg12
S'8.108'
p6582
sg14
S'8.102'
p6583
sg16
g332
sg18
g3
sbtp6584
a(g3
g4
(g5
g6
Ntp6585
Rp6586
(dp6587
g10
S'rr'
p6588
sg12
S'8.342'
p6589
sg14
S'8.316'
p6590
sg16
g332
sg18
g3
sbtp6591
a(g122
g4
(g5
g6
Ntp6592
Rp6593
(dp6594
g10
S'rr'
p6595
sg12
S'2.328'
p6596
sg14
S'2.322'
p6597
sg16
g332
sg18
g122
sbtp6598
a(g122
g4
(g5
g6
Ntp6599
Rp6600
(dp6601
g10
S'rr'
p6602
sg12
S'4.318'
p6603
sg14
S'4.312'
p6604
sg16
g332
sg18
g122
sbtp6605
a(g122
g4
(g5
g6
Ntp6606
Rp6607
(dp6608
g10
S'rr'
p6609
sg12
S'6.15'
p6610
sg14
S'6.144'
p6611
sg16
g332
sg18
g122
sbtp6612
a(g223
g4
(g5
g6
Ntp6613
Rp6614
(dp6615
g10
S'rr'
p6616
sg12
S'6.388'
p6617
sg14
S'6.338'
p6618
sg16
g332
sg18
g223
sbtp6619
asS'rr_a'
p6620
(lp6621
(g34
g4
(g5
g6
Ntp6622
Rp6623
(dp6624
g10
S'rr'
p6625
sg12
S'4.35'
p6626
sg14
S'4.32'
p6627
sg16
g236
sg18
g34
sbtp6628
asS'rA_sp'
p6629
(lp6630
(g122
g4
(g5
g6
Ntp6631
Rp6632
(dp6633
g10
S'rA'
p6634
sg12
S'7.81'
p6635
sg14
S'7.81'
p6636
sg16
S'sp'
p6637
sg18
g122
sbtp6638
asS'llA_o'
p6639
(lp6640
(g34
g4
(g5
g6
Ntp6641
Rp6642
(dp6643
g10
S'llA'
p6644
sg12
S'11.208'
p6645
sg14
S'11.17'
p6646
sg16
g429
sg18
g34
sbtp6647
a(g215
g4
(g5
g6
Ntp6648
Rp6649
(dp6650
g10
S'llA'
p6651
sg12
S'6.582'
p6652
sg14
S'6.576'
p6653
sg16
g429
sg18
g215
sbtp6654
asS'bA_eS'
p6655
(lp6656
(g93
g4
(g5
g6
Ntp6657
Rp6658
(dp6659
g10
S'bA'
p6660
sg12
S'4.252'
p6661
sg14
S'4.204'
p6662
sg16
S'eS'
p6663
sg18
g93
sbtp6664
asS'm_eS'
p6665
(lp6666
(g34
g4
(g5
g6
Ntp6667
Rp6668
(dp6669
g10
g1501
sg12
S'4.87'
p6670
sg14
S'4.824'
p6671
sg16
S'eS'
p6672
sg18
g34
sbtp6673
a(g34
g4
(g5
g6
Ntp6674
Rp6675
(dp6676
g10
g1501
sg12
S'8.796'
p6677
sg14
S'8.75'
p6678
sg16
S'eS'
p6679
sg18
g34
sbtp6680
a(g56
g4
(g5
g6
Ntp6681
Rp6682
(dp6683
g10
g1501
sg12
S'2.62'
p6684
sg14
S'2.558'
p6685
sg16
S'eS'
p6686
sg18
g56
sbtp6687
a(g122
g4
(g5
g6
Ntp6688
Rp6689
(dp6690
g10
g1501
sg12
S'9.57'
p6691
sg14
S'9.52'
p6692
sg16
S'eS'
p6693
sg18
g122
sbtp6694
a(g186
g4
(g5
g6
Ntp6695
Rp6696
(dp6697
g10
g1501
sg12
S'10.786'
p6698
sg14
S'10.716'
p6699
sg16
S'eS'
p6700
sg18
g186
sbtp6701
a(g223
g4
(g5
g6
Ntp6702
Rp6703
(dp6704
g10
g1501
sg12
S'3.278'
p6705
sg14
S'3.204'
p6706
sg16
S'eS'
p6707
sg18
g223
sbtp6708
asS'k_uSC'
p6709
(lp6710
(g56
g4
(g5
g6
Ntp6711
Rp6712
(dp6713
g10
g1683
sg12
S'5.78'
p6714
sg14
S'5.658'
p6715
sg16
S'uSC'
p6716
sg18
g56
sbtp6717
a(g56
g4
(g5
g6
Ntp6718
Rp6719
(dp6720
g10
g1683
sg12
S'8.554'
p6721
sg14
S'8.536'
p6722
sg16
S'uSC'
p6723
sg18
g56
sbtp6724
a(g56
g4
(g5
g6
Ntp6725
Rp6726
(dp6727
g10
g1683
sg12
S'11.234'
p6728
sg14
S'11.156'
p6729
sg16
S'uSC'
p6730
sg18
g56
sbtp6731
a(g186
g4
(g5
g6
Ntp6732
Rp6733
(dp6734
g10
g1683
sg12
S'3.536'
p6735
sg14
S'3.482'
p6736
sg16
S'uSC'
p6737
sg18
g186
sbtp6738
asS'uSV_s'
p6739
(lp6740
(g122
g4
(g5
g6
Ntp6741
Rp6742
(dp6743
g10
S'uSV'
p6744
sg12
S'6.02'
p6745
sg14
S'5.93'
p6746
sg16
g1596
sg18
g122
sbtp6747
asS'uSV_n'
p6748
(lp6749
(g3
g4
(g5
g6
Ntp6750
Rp6751
(dp6752
g10
S'uSV'
p6753
sg12
S'4.38'
p6754
sg14
S'4.302'
p6755
sg16
g1807
sg18
g3
sbtp6756
a(g56
g4
(g5
g6
Ntp6757
Rp6758
(dp6759
g10
S'uSV'
p6760
sg12
S'2.136'
p6761
sg14
S'2.13'
p6762
sg16
g1807
sg18
g56
sbtp6763
a(g71
g4
(g5
g6
Ntp6764
Rp6765
(dp6766
g10
S'uSV'
p6767
sg12
S'3.75'
p6768
sg14
S'3.712'
p6769
sg16
g1807
sg18
g71
sbtp6770
a(g93
g4
(g5
g6
Ntp6771
Rp6772
(dp6773
g10
S'uSV'
p6774
sg12
S'1.918'
p6775
sg14
S'1.834'
p6776
sg16
g1807
sg18
g93
sbtp6777
a(g215
g4
(g5
g6
Ntp6778
Rp6779
(dp6780
g10
S'uSV'
p6781
sg12
S'2.544'
p6782
sg14
S'2.506'
p6783
sg16
g1807
sg18
g215
sbtp6784
a(g215
g4
(g5
g6
Ntp6785
Rp6786
(dp6787
g10
S'uSV'
p6788
sg12
S'5.608'
p6789
sg14
S'5.55'
p6790
sg16
g1807
sg18
g215
sbtp6791
a(g215
g4
(g5
g6
Ntp6792
Rp6793
(dp6794
g10
S'uSV'
p6795
sg12
S'7.688'
p6796
sg14
S'7.682'
p6797
sg16
g1807
sg18
g215
sbtp6798
asS'uSV_dA'
p6799
(lp6800
(g56
g4
(g5
g6
Ntp6801
Rp6802
(dp6803
g10
S'uSV'
p6804
sg12
S'3.438'
p6805
sg14
S'3.43'
p6806
sg16
S'dA'
p6807
sg18
g56
sbtp6808
asS'x_e'
p6809
(lp6810
(g3
g4
(g5
g6
Ntp6811
Rp6812
(dp6813
g10
g1944
sg12
S'3.148'
p6814
sg14
S'3.074'
p6815
sg16
g332
sg18
g3
sbtp6816
asS'x_o'
p6817
(lp6818
(g3
g4
(g5
g6
Ntp6819
Rp6820
(dp6821
g10
g1944
sg12
S'10.87'
p6822
sg14
S'10.83'
p6823
sg16
g429
sg18
g3
sbtp6824
asS'a_t_cl'
p6825
(lp6826
(g34
g4
(g5
g6
Ntp6827
Rp6828
(dp6829
g10
g236
sg12
S'3.534'
p6830
sg14
S'3.484'
p6831
sg16
S't_cl'
p6832
sg18
g34
sbtp6833
a(g56
g4
(g5
g6
Ntp6834
Rp6835
(dp6836
g10
g236
sg12
S'5.81'
p6837
sg14
S'5.796'
p6838
sg16
S't_cl'
p6839
sg18
g56
sbtp6840
a(g122
g4
(g5
g6
Ntp6841
Rp6842
(dp6843
g10
g236
sg12
S'5.14'
p6844
sg14
S'5.092'
p6845
sg16
S't_cl'
p6846
sg18
g122
sbtp6847
asS'h_o'
p6848
(lp6849
(g3
g4
(g5
g6
Ntp6850
Rp6851
(dp6852
g10
g1511
sg12
S'4.778'
p6853
sg14
S'4.662'
p6854
sg16
g429
sg18
g3
sbtp6855
a(g93
g4
(g5
g6
Ntp6856
Rp6857
(dp6858
g10
g1511
sg12
S'2.16'
p6859
sg14
S'2.038'
p6860
sg16
g429
sg18
g93
sbtp6861
a(g93
g4
(g5
g6
Ntp6862
Rp6863
(dp6864
g10
g1511
sg12
S'3.184'
p6865
sg14
S'3.06'
p6866
sg16
g429
sg18
g93
sbtp6867
asS'uS_d_cl'
p6868
(lp6869
(g122
g4
(g5
g6
Ntp6870
Rp6871
(dp6872
g10
S'uS'
p6873
sg12
S'11.66'
p6874
sg14
S'11.654'
p6875
sg16
S'd_cl'
p6876
sg18
g122
sbtp6877
asS'aS_t_cl'
p6878
(lp6879
(g93
g4
(g5
g6
Ntp6880
Rp6881
(dp6882
g10
S'aS'
p6883
sg12
S'6.916'
p6884
sg14
S'6.864'
p6885
sg16
S't_cl'
p6886
sg18
g93
sbtp6887
asS'b_l'
p6888
(lp6889
(g34
g4
(g5
g6
Ntp6890
Rp6891
(dp6892
g10
S'b'
p6893
sg12
S'4.708'
p6894
sg14
S'4.616'
p6895
sg16
g273
sg18
g34
sbtp6896
a(g34
g4
(g5
g6
Ntp6897
Rp6898
(dp6899
g10
g6893
sg12
S'5.416'
p6900
sg14
S'5.346'
p6901
sg16
g273
sg18
g34
sbtp6902
a(g34
g4
(g5
g6
Ntp6903
Rp6904
(dp6905
g10
g6893
sg12
S'6.852'
p6906
sg14
S'6.72'
p6907
sg16
g273
sg18
g34
sbtp6908
a(g122
g4
(g5
g6
Ntp6909
Rp6910
(dp6911
g10
g6893
sg12
S'9.406'
p6912
sg14
S'9.322'
p6913
sg16
g273
sg18
g122
sbtp6914
asS'b_o'
p6915
(lp6916
(g56
g4
(g5
g6
Ntp6917
Rp6918
(dp6919
g10
g6893
sg12
S'13.866'
p6920
sg14
S'13.802'
p6921
sg16
g429
sg18
g56
sbtp6922
asS'n_g_cl'
p6923
(lp6924
(g93
g4
(g5
g6
Ntp6925
Rp6926
(dp6927
g10
g1807
sg12
S'6.166'
p6928
sg14
S'6.114'
p6929
sg16
S'g_cl'
p6930
sg18
g93
sbtp6931
a(g122
g4
(g5
g6
Ntp6932
Rp6933
(dp6934
g10
g1807
sg12
S'10.84'
p6935
sg14
S'10.764'
p6936
sg16
S'g_cl'
p6937
sg18
g122
sbtp6938
asS'b_r'
p6939
(lp6940
(g122
g4
(g5
g6
Ntp6941
Rp6942
(dp6943
g10
g6893
sg12
S'3.158'
p6944
sg14
S'3.118'
p6945
sg16
g290
sg18
g122
sbtp6946
a(g223
g4
(g5
g6
Ntp6947
Rp6948
(dp6949
g10
g6893
sg12
S'3.47'
p6950
sg14
S'3.448'
p6951
sg16
g290
sg18
g223
sbtp6952
asS'rA_aS'
p6953
(lp6954
(g71
g4
(g5
g6
Ntp6955
Rp6956
(dp6957
g10
S'rA'
p6958
sg12
S'3.376'
p6959
sg14
S'3.326'
p6960
sg16
S'aS'
p6961
sg18
g71
sbtp6962
a(g122
g4
(g5
g6
Ntp6963
Rp6964
(dp6965
g10
S'rA'
p6966
sg12
S'2.054'
p6967
sg14
S'1.986'
p6968
sg16
S'aS'
p6969
sg18
g122
sbtp6970
a(g186
g4
(g5
g6
Ntp6971
Rp6972
(dp6973
g10
S'rA'
p6974
sg12
S'12.118'
p6975
sg14
S'11.838'
p6976
sg16
S'aS'
p6977
sg18
g186
sbtp6978
asS'sp_i'
p6979
(lp6980
(g3
g4
(g5
g6
Ntp6981
Rp6982
(dp6983
g10
S'sp'
p6984
sg12
S'7.988'
p6985
sg14
S'7.92'
p6986
sg16
g253
sg18
g3
sbtp6987
a(g34
g4
(g5
g6
Ntp6988
Rp6989
(dp6990
g10
S'sp'
p6991
sg12
S'8.02'
p6992
sg14
S'7.958'
p6993
sg16
g253
sg18
g34
sbtp6994
a(g186
g4
(g5
g6
Ntp6995
Rp6996
(dp6997
g10
S'sp'
p6998
sg12
S'6.406'
p6999
sg14
S'6.396'
p7000
sg16
g253
sg18
g186
sbtp7001
asS'e_t_cl'
p7002
(lp7003
(g122
g4
(g5
g6
Ntp7004
Rp7005
(dp7006
g10
g332
sg12
S'10.198'
p7007
sg14
S'10.142'
p7008
sg16
S't_cl'
p7009
sg18
g122
sbtp7010
a(g186
g4
(g5
g6
Ntp7011
Rp7012
(dp7013
g10
g332
sg12
S'4.492'
p7014
sg14
S'4.428'
p7015
sg16
S't_cl'
p7016
sg18
g186
sbtp7017
a(g186
g4
(g5
g6
Ntp7018
Rp7019
(dp7020
g10
g332
sg12
S'7.482'
p7021
sg14
S'7.426'
p7022
sg16
S't_cl'
p7023
sg18
g186
sbtp7024
a(g186
g4
(g5
g6
Ntp7025
Rp7026
(dp7027
g10
g332
sg12
S'13.33'
p7028
sg14
S'13.296'
p7029
sg16
S't_cl'
p7030
sg18
g186
sbtp7031
asS'sp_m'
p7032
(lp7033
(g3
g4
(g5
g6
Ntp7034
Rp7035
(dp7036
g10
S'sp'
p7037
sg12
S'11.188'
p7038
sg14
S'11.092'
p7039
sg16
g1501
sg18
g3
sbtp7040
a(g56
g4
(g5
g6
Ntp7041
Rp7042
(dp7043
g10
S'sp'
p7044
sg12
S'3.768'
p7045
sg14
S'3.668'
p7046
sg16
g1501
sg18
g56
sbtp7047
a(g56
g4
(g5
g6
Ntp7048
Rp7049
(dp7050
g10
S'sp'
p7051
sg12
S'4.86'
p7052
sg14
S'4.798'
p7053
sg16
g1501
sg18
g56
sbtp7054
a(g56
g4
(g5
g6
Ntp7055
Rp7056
(dp7057
g10
S'sp'
p7058
sg12
S'7.218'
p7059
sg14
S'7.138'
p7060
sg16
g1501
sg18
g56
sbtp7061
a(g56
g4
(g5
g6
Ntp7062
Rp7063
(dp7064
g10
S'sp'
p7065
sg12
S'10.054'
p7066
sg14
S'9.984'
p7067
sg16
g1501
sg18
g56
sbtp7068
a(g71
g4
(g5
g6
Ntp7069
Rp7070
(dp7071
g10
S'sp'
p7072
sg12
S'3.904'
p7073
sg14
S'3.762'
p7074
sg16
g1501
sg18
g71
sbtp7075
a(g186
g4
(g5
g6
Ntp7076
Rp7077
(dp7078
g10
S'sp'
p7079
sg12
S'6.264'
p7080
sg14
S'6.184'
p7081
sg16
g1501
sg18
g186
sbtp7082
a(g186
g4
(g5
g6
Ntp7083
Rp7084
(dp7085
g10
S'sp'
p7086
sg12
S'10.074'
p7087
sg14
S'9.99'
p7088
sg16
g1501
sg18
g186
sbtp7089
a(g186
g4
(g5
g6
Ntp7090
Rp7091
(dp7092
g10
S'sp'
p7093
sg12
S'13.118'
p7094
sg14
S'13.044'
p7095
sg16
g1501
sg18
g186
sbtp7096
asS'sp_n'
p7097
(lp7098
(g56
g4
(g5
g6
Ntp7099
Rp7100
(dp7101
g10
S'sp'
p7102
sg12
S'5.01'
p7103
sg14
S'4.998'
p7104
sg16
g1807
sg18
g56
sbtp7105
a(g56
g4
(g5
g6
Ntp7106
Rp7107
(dp7108
g10
S'sp'
p7109
sg12
S'7.33'
p7110
sg14
S'7.324'
p7111
sg16
g1807
sg18
g56
sbtp7112
a(g122
g4
(g5
g6
Ntp7113
Rp7114
(dp7115
g10
S'sp'
p7116
sg12
S'10.698'
p7117
sg14
S'10.578'
p7118
sg16
g1807
sg18
g122
sbtp7119
a(g215
g4
(g5
g6
Ntp7120
Rp7121
(dp7122
g10
S'sp'
p7123
sg12
S'7.87'
p7124
sg14
S'7.816'
p7125
sg16
g1807
sg18
g215
sbtp7126
asS'sp_o'
p7127
(lp7128
(g186
g4
(g5
g6
Ntp7129
Rp7130
(dp7131
g10
S'sp'
p7132
sg12
S'4.732'
p7133
sg14
S'4.726'
p7134
sg16
g429
sg18
g186
sbtp7135
asS'sp_a'
p7136
(lp7137
(g3
g4
(g5
g6
Ntp7138
Rp7139
(dp7140
g10
S'sp'
p7141
sg12
S'4.254'
p7142
sg14
S'4.234'
p7143
sg16
g236
sg18
g3
sbtp7144
a(g3
g4
(g5
g6
Ntp7145
Rp7146
(dp7147
g10
S'sp'
p7148
sg12
S'7.27'
p7149
sg14
S'7.222'
p7150
sg16
g236
sg18
g3
sbtp7151
a(g34
g4
(g5
g6
Ntp7152
Rp7153
(dp7154
g10
S'sp'
p7155
sg12
S'5.504'
p7156
sg14
S'5.44'
p7157
sg16
g236
sg18
g34
sbtp7158
a(g34
g4
(g5
g6
Ntp7159
Rp7160
(dp7161
g10
S'sp'
p7162
sg12
S'5.646'
p7163
sg14
S'5.554'
p7164
sg16
g236
sg18
g34
sbtp7165
a(g56
g4
(g5
g6
Ntp7166
Rp7167
(dp7168
g10
S'sp'
p7169
sg12
S'6.944'
p7170
sg14
S'6.938'
p7171
sg16
g236
sg18
g56
sbtp7172
a(g56
g4
(g5
g6
Ntp7173
Rp7174
(dp7175
g10
S'sp'
p7176
sg12
S'11.878'
p7177
sg14
S'11.818'
p7178
sg16
g236
sg18
g56
sbtp7179
a(g93
g4
(g5
g6
Ntp7180
Rp7181
(dp7182
g10
S'sp'
p7183
sg12
S'5.342'
p7184
sg14
S'5.33'
p7185
sg16
g236
sg18
g93
sbtp7186
a(g122
g4
(g5
g6
Ntp7187
Rp7188
(dp7189
g10
S'sp'
p7190
sg12
S'5.546'
p7191
sg14
S'5.396'
p7192
sg16
g236
sg18
g122
sbtp7193
a(g122
g4
(g5
g6
Ntp7194
Rp7195
(dp7196
g10
S'sp'
p7197
sg12
S'7.816'
p7198
sg14
S'7.81'
p7199
sg16
g236
sg18
g122
sbtp7200
a(g122
g4
(g5
g6
Ntp7201
Rp7202
(dp7203
g10
S'sp'
p7204
sg12
S'9.158'
p7205
sg14
S'9.056'
p7206
sg16
g236
sg18
g122
sbtp7207
a(g122
g4
(g5
g6
Ntp7208
Rp7209
(dp7210
g10
S'sp'
p7211
sg12
S'11.38'
p7212
sg14
S'11.33'
p7213
sg16
g236
sg18
g122
sbtp7214
a(g186
g4
(g5
g6
Ntp7215
Rp7216
(dp7217
g10
S'sp'
p7218
sg12
S'10.18'
p7219
sg14
S'10.15'
p7220
sg16
g236
sg18
g186
sbtp7221
a(g186
g4
(g5
g6
Ntp7222
Rp7223
(dp7224
g10
S'sp'
p7225
sg12
S'10.656'
p7226
sg14
S'10.65'
p7227
sg16
g236
sg18
g186
sbtp7228
a(g223
g4
(g5
g6
Ntp7229
Rp7230
(dp7231
g10
S'sp'
p7232
sg12
S'4.828'
p7233
sg14
S'4.742'
p7234
sg16
g236
sg18
g223
sbtp7235
asS'sp_e'
p7236
(lp7237
(g3
g4
(g5
g6
Ntp7238
Rp7239
(dp7240
g10
S'sp'
p7241
sg12
S'2.384'
p7242
sg14
S'2.378'
p7243
sg16
g332
sg18
g3
sbtp7244
a(g3
g4
(g5
g6
Ntp7245
Rp7246
(dp7247
g10
S'sp'
p7248
sg12
S'4.622'
p7249
sg14
S'4.616'
p7250
sg16
g332
sg18
g3
sbtp7251
a(g3
g4
(g5
g6
Ntp7252
Rp7253
(dp7254
g10
S'sp'
p7255
sg12
S'9.528'
p7256
sg14
S'9.476'
p7257
sg16
g332
sg18
g3
sbtp7258
a(g3
g4
(g5
g6
Ntp7259
Rp7260
(dp7261
g10
S'sp'
p7262
sg12
S'9.62'
p7263
sg14
S'9.582'
p7264
sg16
g332
sg18
g3
sbtp7265
a(g34
g4
(g5
g6
Ntp7266
Rp7267
(dp7268
g10
S'sp'
p7269
sg12
S'2.466'
p7270
sg14
S'2.46'
p7271
sg16
g332
sg18
g34
sbtp7272
a(g34
g4
(g5
g6
Ntp7273
Rp7274
(dp7275
g10
S'sp'
p7276
sg12
S'5.038'
p7277
sg14
S'5.004'
p7278
sg16
g332
sg18
g34
sbtp7279
a(g56
g4
(g5
g6
Ntp7280
Rp7281
(dp7282
g10
S'sp'
p7283
sg12
S'2.282'
p7284
sg14
S'2.238'
p7285
sg16
g332
sg18
g56
sbtp7286
a(g56
g4
(g5
g6
Ntp7287
Rp7288
(dp7289
g10
S'sp'
p7290
sg12
S'2.654'
p7291
sg14
S'2.626'
p7292
sg16
g332
sg18
g56
sbtp7293
a(g56
g4
(g5
g6
Ntp7294
Rp7295
(dp7296
g10
S'sp'
p7297
sg12
S'4.764'
p7298
sg14
S'4.758'
p7299
sg16
g332
sg18
g56
sbtp7300
a(g56
g4
(g5
g6
Ntp7301
Rp7302
(dp7303
g10
S'sp'
p7304
sg12
S'6.862'
p7305
sg14
S'6.856'
p7306
sg16
g332
sg18
g56
sbtp7307
a(g56
g4
(g5
g6
Ntp7308
Rp7309
(dp7310
g10
S'sp'
p7311
sg12
S'9.186'
p7312
sg14
S'9.174'
p7313
sg16
g332
sg18
g56
sbtp7314
a(g56
g4
(g5
g6
Ntp7315
Rp7316
(dp7317
g10
S'sp'
p7318
sg12
S'14.4'
p7319
sg14
S'14.362'
p7320
sg16
g332
sg18
g56
sbtp7321
a(g71
g4
(g5
g6
Ntp7322
Rp7323
(dp7324
g10
S'sp'
p7325
sg12
S'2.694'
p7326
sg14
S'2.688'
p7327
sg16
g332
sg18
g71
sbtp7328
a(g93
g4
(g5
g6
Ntp7329
Rp7330
(dp7331
g10
S'sp'
p7332
sg12
S'5.88'
p7333
sg14
S'5.838'
p7334
sg16
g332
sg18
g93
sbtp7335
a(g122
g4
(g5
g6
Ntp7336
Rp7337
(dp7338
g10
S'sp'
p7339
sg12
S'8.176'
p7340
sg14
S'8.112'
p7341
sg16
g332
sg18
g122
sbtp7342
a(g186
g4
(g5
g6
Ntp7343
Rp7344
(dp7345
g10
S'sp'
p7346
sg12
S'2.882'
p7347
sg14
S'2.756'
p7348
sg16
g332
sg18
g186
sbtp7349
a(g186
g4
(g5
g6
Ntp7350
Rp7351
(dp7352
g10
S'sp'
p7353
sg12
S'12.21'
p7354
sg14
S'12.164'
p7355
sg16
g332
sg18
g186
sbtp7356
a(g186
g4
(g5
g6
Ntp7357
Rp7358
(dp7359
g10
S'sp'
p7360
sg12
S'12.712'
p7361
sg14
S'12.706'
p7362
sg16
g332
sg18
g186
sbtp7363
a(g223
g4
(g5
g6
Ntp7364
Rp7365
(dp7366
g10
S'sp'
p7367
sg12
S'5.256'
p7368
sg14
S'5.25'
p7369
sg16
g332
sg18
g223
sbtp7370
asS'sp_f'
p7371
(lp7372
(g56
g4
(g5
g6
Ntp7373
Rp7374
(dp7375
g10
S'sp'
p7376
sg12
S'4.206'
p7377
sg14
S'4.062'
p7378
sg16
g2853
sg18
g56
sbtp7379
a(g56
g4
(g5
g6
Ntp7380
Rp7381
(dp7382
g10
S'sp'
p7383
sg12
S'4.37'
p7384
sg14
S'4.248'
p7385
sg16
g2853
sg18
g56
sbtp7386
a(g56
g4
(g5
g6
Ntp7387
Rp7388
(dp7389
g10
S'sp'
p7390
sg12
S'8.968'
p7391
sg14
S'8.816'
p7392
sg16
g2853
sg18
g56
sbtp7393
a(g56
g4
(g5
g6
Ntp7394
Rp7395
(dp7396
g10
S'sp'
p7397
sg12
S'13.62'
p7398
sg14
S'13.472'
p7399
sg16
g2853
sg18
g56
sbtp7400
a(g71
g4
(g5
g6
Ntp7401
Rp7402
(dp7403
g10
S'sp'
p7404
sg12
S'5.326'
p7405
sg14
S'5.222'
p7406
sg16
g2853
sg18
g71
sbtp7407
a(g215
g4
(g5
g6
Ntp7408
Rp7409
(dp7410
g10
S'sp'
p7411
sg12
S'2.332'
p7412
sg14
S'2.18'
p7413
sg16
g2853
sg18
g215
sbtp7414
a(g215
g4
(g5
g6
Ntp7415
Rp7416
(dp7417
g10
S'sp'
p7418
sg12
S'6.694'
p7419
sg14
S'6.582'
p7420
sg16
g2853
sg18
g215
sbtp7421
a(g223
g4
(g5
g6
Ntp7422
Rp7423
(dp7424
g10
S'sp'
p7425
sg12
S'5.046'
p7426
sg14
S'4.904'
p7427
sg16
g2853
sg18
g223
sbtp7428
asS'n_s'
p7429
(lp7430
(g3
g4
(g5
g6
Ntp7431
Rp7432
(dp7433
g10
g1807
sg12
S'2.506'
p7434
sg14
S'2.396'
p7435
sg16
g1596
sg18
g3
sbtp7436
a(g3
g4
(g5
g6
Ntp7437
Rp7438
(dp7439
g10
g1807
sg12
S'2.808'
p7440
sg14
S'2.72'
p7441
sg16
g1596
sg18
g3
sbtp7442
a(g3
g4
(g5
g6
Ntp7443
Rp7444
(dp7445
g10
g1807
sg12
S'7.102'
p7446
sg14
S'6.974'
p7447
sg16
g1596
sg18
g3
sbtp7448
a(g122
g4
(g5
g6
Ntp7449
Rp7450
(dp7451
g10
g1807
sg12
S'3.9'
p7452
sg14
S'3.726'
p7453
sg16
g1596
sg18
g122
sbtp7454
a(g215
g4
(g5
g6
Ntp7455
Rp7456
(dp7457
g10
g1807
sg12
S'8.296'
p7458
sg14
S'8.17'
p7459
sg16
g1596
sg18
g215
sbtp7460
asS'sp_x'
p7461
(lp7462
(g3
g4
(g5
g6
Ntp7463
Rp7464
(dp7465
g10
S'sp'
p7466
sg12
S'3.074'
p7467
sg14
S'3.012'
p7468
sg16
g1944
sg18
g3
sbtp7469
asS'n_o'
p7470
(lp7471
(g3
g4
(g5
g6
Ntp7472
Rp7473
(dp7474
g10
g1807
sg12
S'10.124'
p7475
sg14
S'10.024'
p7476
sg16
g429
sg18
g3
sbtp7477
a(g56
g4
(g5
g6
Ntp7478
Rp7479
(dp7480
g10
g1807
sg12
S'5.018'
p7481
sg14
S'5.01'
p7482
sg16
g429
sg18
g56
sbtp7483
a(g56
g4
(g5
g6
Ntp7484
Rp7485
(dp7486
g10
g1807
sg12
S'6.846'
p7487
sg14
S'6.816'
p7488
sg16
g429
sg18
g56
sbtp7489
a(g56
g4
(g5
g6
Ntp7490
Rp7491
(dp7492
g10
g1807
sg12
S'7.336'
p7493
sg14
S'7.33'
p7494
sg16
g429
sg18
g56
sbtp7495
a(g71
g4
(g5
g6
Ntp7496
Rp7497
(dp7498
g10
g1807
sg12
S'3.756'
p7499
sg14
S'3.75'
p7500
sg16
g429
sg18
g71
sbtp7501
a(g215
g4
(g5
g6
Ntp7502
Rp7503
(dp7504
g10
g1807
sg12
S'2.656'
p7505
sg14
S'2.544'
p7506
sg16
g429
sg18
g215
sbtp7507
a(g215
g4
(g5
g6
Ntp7508
Rp7509
(dp7510
g10
g1807
sg12
S'5.71'
p7511
sg14
S'5.608'
p7512
sg16
g429
sg18
g215
sbtp7513
a(g215
g4
(g5
g6
Ntp7514
Rp7515
(dp7516
g10
g1807
sg12
S'7.91'
p7517
sg14
S'7.87'
p7518
sg16
g429
sg18
g215
sbtp7519
asS'n_i'
p7520
(lp7521
(g93
g4
(g5
g6
Ntp7522
Rp7523
(dp7524
g10
g1807
sg12
S'4.156'
p7525
sg14
S'4.086'
p7526
sg16
g253
sg18
g93
sbtp7527
a(g122
g4
(g5
g6
Ntp7528
Rp7529
(dp7530
g10
g1807
sg12
S'10.758'
p7531
sg14
S'10.698'
p7532
sg16
g253
sg18
g122
sbtp7533
asS'n_e'
p7534
(lp7535
(g3
g4
(g5
g6
Ntp7536
Rp7537
(dp7538
g10
g1807
sg12
S'9.188'
p7539
sg14
S'9.182'
p7540
sg16
g332
sg18
g3
sbtp7541
asS'h_m'
p7542
(lp7543
(g122
g4
(g5
g6
Ntp7544
Rp7545
(dp7546
g10
g1511
sg12
S'2.206'
p7547
sg14
S'2.108'
p7548
sg16
g1501
sg18
g122
sbtp7549
asS'n_a'
p7550
(lp7551
(g34
g4
(g5
g6
Ntp7552
Rp7553
(dp7554
g10
g1807
sg12
S'4.572'
p7555
sg14
S'4.514'
p7556
sg16
g236
sg18
g34
sbtp7557
a(g71
g4
(g5
g6
Ntp7558
Rp7559
(dp7560
g10
g1807
sg12
S'6.076'
p7561
sg14
S'5.944'
p7562
sg16
g236
sg18
g71
sbtp7563
a(g186
g4
(g5
g6
Ntp7564
Rp7565
(dp7566
g10
g1807
sg12
S'11.616'
p7567
sg14
S'11.576'
p7568
sg16
g236
sg18
g186
sbtp7569
asS'a_r'
p7570
(lp7571
(g122
g4
(g5
g6
Ntp7572
Rp7573
(dp7574
g10
g236
sg12
S'11.804'
p7575
sg14
S'11.76'
p7576
sg16
g290
sg18
g122
sbtp7577
asS'u_f'
p7578
(lp7579
(g34
g4
(g5
g6
Ntp7580
Rp7581
(dp7582
g10
g570
sg12
S'8.306'
p7583
sg14
S'8.258'
p7584
sg16
g2853
sg18
g34
sbtp7585
asS'u_n'
p7586
(lp7587
(g34
g4
(g5
g6
Ntp7588
Rp7589
(dp7590
g10
g570
sg12
S'10.678'
p7591
sg14
S'10.608'
p7592
sg16
g1807
sg18
g34
sbtp7593
a(g56
g4
(g5
g6
Ntp7594
Rp7595
(dp7596
g10
g570
sg12
S'4.45'
p7597
sg14
S'4.404'
p7598
sg16
g1807
sg18
g56
sbtp7599
asS't_aS'
p7600
(lp7601
(g34
g4
(g5
g6
Ntp7602
Rp7603
(dp7604
g10
g670
sg12
S'5.286'
p7605
sg14
S'5.24'
p7606
sg16
S'aS'
p7607
sg18
g34
sbtp7608
a(g34
g4
(g5
g6
Ntp7609
Rp7610
(dp7611
g10
g670
sg12
S'10.402'
p7612
sg14
S'10.29'
p7613
sg16
S'aS'
p7614
sg18
g34
sbtp7615
a(g56
g4
(g5
g6
Ntp7616
Rp7617
(dp7618
g10
g670
sg12
S'8.066'
p7619
sg14
S'8.04'
p7620
sg16
S'aS'
p7621
sg18
g56
sbtp7622
a(g186
g4
(g5
g6
Ntp7623
Rp7624
(dp7625
g10
g670
sg12
S'6.786'
p7626
sg14
S'6.73'
p7627
sg16
S'aS'
p7628
sg18
g186
sbtp7629
a(g223
g4
(g5
g6
Ntp7630
Rp7631
(dp7632
g10
g670
sg12
S'4.736'
p7633
sg14
S'4.68'
p7634
sg16
S'aS'
p7635
sg18
g223
sbtp7636
asS'sp_aS'
p7637
(lp7638
(g186
g4
(g5
g6
Ntp7639
Rp7640
(dp7641
g10
S'sp'
p7642
sg12
S'8.016'
p7643
sg14
S'7.868'
p7644
sg16
S'aS'
p7645
sg18
g186
sbtp7646
asS'uSV_gA'
p7647
(lp7648
(g186
g4
(g5
g6
Ntp7649
Rp7650
(dp7651
g10
S'uSV'
p7652
sg12
S'11.714'
p7653
sg14
S'11.672'
p7654
sg16
S'gA'
p7655
sg18
g186
sbtp7656
asS'k_t_cl'
p7657
(lp7658
(g34
g4
(g5
g6
Ntp7659
Rp7660
(dp7661
g10
g1683
sg12
S'7.556'
p7662
sg14
S'7.55'
p7663
sg16
S't_cl'
p7664
sg18
g34
sbtp7665
a(g56
g4
(g5
g6
Ntp7666
Rp7667
(dp7668
g10
g1683
sg12
S'11.996'
p7669
sg14
S'11.99'
p7670
sg16
S't_cl'
p7671
sg18
g56
sbtp7672
a(g122
g4
(g5
g6
Ntp7673
Rp7674
(dp7675
g10
g1683
sg12
S'11.428'
p7676
sg14
S'11.408'
p7677
sg16
S't_cl'
p7678
sg18
g122
sbtp7679
a(g223
g4
(g5
g6
Ntp7680
Rp7681
(dp7682
g10
g1683
sg12
S'5.812'
p7683
sg14
S'5.806'
p7684
sg16
S't_cl'
p7685
sg18
g223
sbtp7686
asS'oS_b_cl'
p7687
(lp7688
(g223
g4
(g5
g6
Ntp7689
Rp7690
(dp7691
g10
S'oS'
p7692
sg12
S'3.442'
p7693
sg14
S'3.428'
p7694
sg16
S'b_cl'
p7695
sg18
g223
sbtp7696
asS'b_cl_b'
p7697
(lp7698
(g34
g4
(g5
g6
Ntp7699
Rp7700
(dp7701
g10
S'b_cl'
p7702
sg12
S'4.616'
p7703
sg14
S'4.61'
p7704
sg16
g6893
sg18
g34
sbtp7705
a(g34
g4
(g5
g6
Ntp7706
Rp7707
(dp7708
g10
S'b_cl'
p7709
sg12
S'5.346'
p7710
sg14
S'5.34'
p7711
sg16
g6893
sg18
g34
sbtp7712
a(g34
g4
(g5
g6
Ntp7713
Rp7714
(dp7715
g10
S'b_cl'
p7716
sg12
S'6.72'
p7717
sg14
S'6.712'
p7718
sg16
g6893
sg18
g34
sbtp7719
a(g56
g4
(g5
g6
Ntp7720
Rp7721
(dp7722
g10
S'b_cl'
p7723
sg12
S'13.394'
p7724
sg14
S'13.34'
p7725
sg16
g6893
sg18
g56
sbtp7726
a(g56
g4
(g5
g6
Ntp7727
Rp7728
(dp7729
g10
S'b_cl'
p7730
sg12
S'13.802'
p7731
sg14
S'13.698'
p7732
sg16
g6893
sg18
g56
sbtp7733
a(g122
g4
(g5
g6
Ntp7734
Rp7735
(dp7736
g10
S'b_cl'
p7737
sg12
S'3.118'
p7738
sg14
S'3.112'
p7739
sg16
g6893
sg18
g122
sbtp7740
a(g122
g4
(g5
g6
Ntp7741
Rp7742
(dp7743
g10
S'b_cl'
p7744
sg12
S'9.322'
p7745
sg14
S'9.314'
p7746
sg16
g6893
sg18
g122
sbtp7747
a(g223
g4
(g5
g6
Ntp7748
Rp7749
(dp7750
g10
S'b_cl'
p7751
sg12
S'3.448'
p7752
sg14
S'3.442'
p7753
sg16
g6893
sg18
g223
sbtp7754
asS'n_p_cl'
p7755
(lp7756
(g122
g4
(g5
g6
Ntp7757
Rp7758
(dp7759
g10
g1807
sg12
S'2.83'
p7760
sg14
S'2.786'
p7761
sg16
S'p_cl'
p7762
sg18
g122
sbtp7763
asS'iS_dA'
p7764
(lp7765
(g3
g4
(g5
g6
Ntp7766
Rp7767
(dp7768
g10
S'iS'
p7769
sg12
S'4.174'
p7770
sg14
S'4.168'
p7771
sg16
S'dA'
p7772
sg18
g3
sbtp7773
a(g3
g4
(g5
g6
Ntp7774
Rp7775
(dp7776
g10
S'iS'
p7777
sg12
S'5.102'
p7778
sg14
S'5.096'
p7779
sg16
S'dA'
p7780
sg18
g3
sbtp7781
a(g93
g4
(g5
g6
Ntp7782
Rp7783
(dp7784
g10
S'iS'
p7785
sg12
S'6.342'
p7786
sg14
S'6.334'
p7787
sg16
S'dA'
p7788
sg18
g93
sbtp7789
asS'r_aS'
p7790
(lp7791
(g71
g4
(g5
g6
Ntp7792
Rp7793
(dp7794
g10
g290
sg12
S'4.754'
p7795
sg14
S'4.688'
p7796
sg16
S'aS'
p7797
sg18
g71
sbtp7798
a(g93
g4
(g5
g6
Ntp7799
Rp7800
(dp7801
g10
g290
sg12
S'3.314'
p7802
sg14
S'3.252'
p7803
sg16
S'aS'
p7804
sg18
g93
sbtp7805
a(g93
g4
(g5
g6
Ntp7806
Rp7807
(dp7808
g10
g290
sg12
S'6.864'
p7809
sg14
S'6.8'
p7810
sg16
S'aS'
p7811
sg18
g93
sbtp7812
asS'e_iS'
p7813
(lp7814
(g186
g4
(g5
g6
Ntp7815
Rp7816
(dp7817
g10
g332
sg12
S'12.454'
p7818
sg14
S'12.444'
p7819
sg16
S'iS'
p7820
sg18
g186
sbtp7821
asS'a_k_cl'
p7822
(lp7823
(g56
g4
(g5
g6
Ntp7824
Rp7825
(dp7826
g10
g236
sg12
S'11.884'
p7827
sg14
S'11.878'
p7828
sg16
S'k_cl'
p7829
sg18
g56
sbtp7830
a(g56
g4
(g5
g6
Ntp7831
Rp7832
(dp7833
g10
g236
sg12
S'13.07'
p7834
sg14
S'13.064'
p7835
sg16
S'k_cl'
p7836
sg18
g56
sbtp7837
a(g122
g4
(g5
g6
Ntp7838
Rp7839
(dp7840
g10
g236
sg12
S'5.78'
p7841
sg14
S'5.774'
p7842
sg16
S'k_cl'
p7843
sg18
g122
sbtp7844
a(g122
g4
(g5
g6
Ntp7845
Rp7846
(dp7847
g10
g236
sg12
S'11.394'
p7848
sg14
S'11.38'
p7849
sg16
S'k_cl'
p7850
sg18
g122
sbtp7851
asS'l_aS'
p7852
(lp7853
(g34
g4
(g5
g6
Ntp7854
Rp7855
(dp7856
g10
g273
sg12
S'3.112'
p7857
sg14
S'3.054'
p7858
sg16
S'aS'
p7859
sg18
g34
sbtp7860
a(g34
g4
(g5
g6
Ntp7861
Rp7862
(dp7863
g10
g273
sg12
S'9.182'
p7864
sg14
S'9.094'
p7865
sg16
S'aS'
p7866
sg18
g34
sbtp7867
a(g122
g4
(g5
g6
Ntp7868
Rp7869
(dp7870
g10
g273
sg12
S'3.09'
p7871
sg14
S'3.03'
p7872
sg16
S'aS'
p7873
sg18
g122
sbtp7874
a(g186
g4
(g5
g6
Ntp7875
Rp7876
(dp7877
g10
g273
sg12
S'4.134'
p7878
sg14
S'4.078'
p7879
sg16
S'aS'
p7880
sg18
g186
sbtp7881
a(g186
g4
(g5
g6
Ntp7882
Rp7883
(dp7884
g10
g273
sg12
S'7.186'
p7885
sg14
S'7.15'
p7886
sg16
S'aS'
p7887
sg18
g186
sbtp7888
a(g223
g4
(g5
g6
Ntp7889
Rp7890
(dp7891
g10
g273
sg12
S'3.71'
p7892
sg14
S'3.612'
p7893
sg16
S'aS'
p7894
sg18
g223
sbtp7895
asS'n_t_cl'
p7896
(lp7897
(g3
g4
(g5
g6
Ntp7898
Rp7899
(dp7900
g10
g1807
sg12
S'8.744'
p7901
sg14
S'8.738'
p7902
sg16
S't_cl'
p7903
sg18
g3
sbtp7904
a(g34
g4
(g5
g6
Ntp7905
Rp7906
(dp7907
g10
g1807
sg12
S'4.982'
p7908
sg14
S'4.902'
p7909
sg16
S't_cl'
p7910
sg18
g34
sbtp7911
a(g34
g4
(g5
g6
Ntp7912
Rp7913
(dp7914
g10
g1807
sg12
S'8.59'
p7915
sg14
S'8.538'
p7916
sg16
S't_cl'
p7917
sg18
g34
sbtp7918
a(g34
g4
(g5
g6
Ntp7919
Rp7920
(dp7921
g10
g1807
sg12
S'8.854'
p7922
sg14
S'8.806'
p7923
sg16
S't_cl'
p7924
sg18
g34
sbtp7925
a(g56
g4
(g5
g6
Ntp7926
Rp7927
(dp7928
g10
g1807
sg12
S'5.37'
p7929
sg14
S'5.34'
p7930
sg16
S't_cl'
p7931
sg18
g56
sbtp7932
a(g56
g4
(g5
g6
Ntp7933
Rp7934
(dp7935
g10
g1807
sg12
S'7.616'
p7936
sg14
S'7.568'
p7937
sg16
S't_cl'
p7938
sg18
g56
sbtp7939
a(g56
g4
(g5
g6
Ntp7940
Rp7941
(dp7942
g10
g1807
sg12
S'7.992'
p7943
sg14
S'7.936'
p7944
sg16
S't_cl'
p7945
sg18
g56
sbtp7946
a(g71
g4
(g5
g6
Ntp7947
Rp7948
(dp7949
g10
g1807
sg12
S'3.476'
p7950
sg14
S'3.416'
p7951
sg16
S't_cl'
p7952
sg18
g71
sbtp7953
a(g93
g4
(g5
g6
Ntp7954
Rp7955
(dp7956
g10
g1807
sg12
S'6.692'
p7957
sg14
S'6.642'
p7958
sg16
S't_cl'
p7959
sg18
g93
sbtp7960
a(g122
g4
(g5
g6
Ntp7961
Rp7962
(dp7963
g10
g1807
sg12
S'9.644'
p7964
sg14
S'9.592'
p7965
sg16
S't_cl'
p7966
sg18
g122
sbtp7967
a(g122
g4
(g5
g6
Ntp7968
Rp7969
(dp7970
g10
g1807
sg12
S'11.046'
p7971
sg14
S'10.988'
p7972
sg16
S't_cl'
p7973
sg18
g122
sbtp7974
a(g186
g4
(g5
g6
Ntp7975
Rp7976
(dp7977
g10
g1807
sg12
S'3.622'
p7978
sg14
S'3.576'
p7979
sg16
S't_cl'
p7980
sg18
g186
sbtp7981
a(g186
g4
(g5
g6
Ntp7982
Rp7983
(dp7984
g10
g1807
sg12
S'6.862'
p7985
sg14
S'6.818'
p7986
sg16
S't_cl'
p7987
sg18
g186
sbtp7988
a(g186
g4
(g5
g6
Ntp7989
Rp7990
(dp7991
g10
g1807
sg12
S'10.268'
p7992
sg14
S'10.216'
p7993
sg16
S't_cl'
p7994
sg18
g186
sbtp7995
a(g186
g4
(g5
g6
Ntp7996
Rp7997
(dp7998
g10
g1807
sg12
S'12.52'
p7999
sg14
S'12.466'
p8000
sg16
S't_cl'
p8001
sg18
g186
sbtp8002
a(g186
g4
(g5
g6
Ntp8003
Rp8004
(dp8005
g10
g1807
sg12
S'13.654'
p8006
sg14
S'13.608'
p8007
sg16
S't_cl'
p8008
sg18
g186
sbtp8009
a(g186
g4
(g5
g6
Ntp8010
Rp8011
(dp8012
g10
g1807
sg12
S'14.058'
p8013
sg14
S'14.012'
p8014
sg16
S't_cl'
p8015
sg18
g186
sbtp8016
a(g215
g4
(g5
g6
Ntp8017
Rp8018
(dp8019
g10
g1807
sg12
S'3.07'
p8020
sg14
S'3.034'
p8021
sg16
S't_cl'
p8022
sg18
g215
sbtp8023
a(g215
g4
(g5
g6
Ntp8024
Rp8025
(dp8026
g10
g1807
sg12
S'3.58'
p8027
sg14
S'3.536'
p8028
sg16
S't_cl'
p8029
sg18
g215
sbtp8030
a(g215
g4
(g5
g6
Ntp8031
Rp8032
(dp8033
g10
g1807
sg12
S'3.918'
p8034
sg14
S'3.866'
p8035
sg16
S't_cl'
p8036
sg18
g215
sbtp8037
a(g223
g4
(g5
g6
Ntp8038
Rp8039
(dp8040
g10
g1807
sg12
S'5.328'
p8041
sg14
S'5.288'
p8042
sg16
S't_cl'
p8043
sg18
g223
sbtp8044
asS'i_uSV'
p8045
(lp8046
(g56
g4
(g5
g6
Ntp8047
Rp8048
(dp8049
g10
g253
sg12
S'3.43'
p8050
sg14
S'3.354'
p8051
sg16
S'uSV'
p8052
sg18
g56
sbtp8053
asS'sil_dA'
p8054
(lp8055
(g34
g4
(g5
g6
Ntp8056
Rp8057
(dp8058
g10
S'sil'
p8059
sg12
S'7.4'
p8060
sg14
S'7.302'
p8061
sg16
S'dA'
p8062
sg18
g34
sbtp8063
a(g56
g4
(g5
g6
Ntp8064
Rp8065
(dp8066
g10
S'sil'
p8067
sg12
S'10.916'
p8068
sg14
S'10.886'
p8069
sg16
S'dA'
p8070
sg18
g56
sbtp8071
a(g122
g4
(g5
g6
Ntp8072
Rp8073
(dp8074
g10
S'sil'
p8075
sg12
S'8.766'
p8076
sg14
S'8.74'
p8077
sg16
S'dA'
p8078
sg18
g122
sbtp8079
asS'd_cl_d'
p8080
(lp8081
(g34
g4
(g5
g6
Ntp8082
Rp8083
(dp8084
g10
S'd_cl'
p8085
sg12
S'9.318'
p8086
sg14
S'9.256'
p8087
sg16
g546
sg18
g34
sbtp8088
a(g56
g4
(g5
g6
Ntp8089
Rp8090
(dp8091
g10
S'd_cl'
p8092
sg12
S'3.538'
p8093
sg14
S'3.532'
p8094
sg16
g546
sg18
g56
sbtp8095
a(g56
g4
(g5
g6
Ntp8096
Rp8097
(dp8098
g10
S'd_cl'
p8099
sg12
S'4.554'
p8100
sg14
S'4.502'
p8101
sg16
g546
sg18
g56
sbtp8102
a(g56
g4
(g5
g6
Ntp8103
Rp8104
(dp8105
g10
S'd_cl'
p8106
sg12
S'8.67'
p8107
sg14
S'8.638'
p8108
sg16
g546
sg18
g56
sbtp8109
a(g56
g4
(g5
g6
Ntp8110
Rp8111
(dp8112
g10
S'd_cl'
p8113
sg12
S'9.126'
p8114
sg14
S'9.094'
p8115
sg16
g546
sg18
g56
sbtp8116
a(g122
g4
(g5
g6
Ntp8117
Rp8118
(dp8119
g10
S'd_cl'
p8120
sg12
S'2.612'
p8121
sg14
S'2.592'
p8122
sg16
g546
sg18
g122
sbtp8123
a(g122
g4
(g5
g6
Ntp8124
Rp8125
(dp8126
g10
S'd_cl'
p8127
sg12
S'11.666'
p8128
sg14
S'11.66'
p8129
sg16
g546
sg18
g122
sbtp8130
a(g186
g4
(g5
g6
Ntp8131
Rp8132
(dp8133
g10
S'd_cl'
p8134
sg12
S'6.052'
p8135
sg14
S'6.036'
p8136
sg16
g546
sg18
g186
sbtp8137
asS'l_oS'
p8138
(lp8139
(g34
g4
(g5
g6
Ntp8140
Rp8141
(dp8142
g10
g273
sg12
S'2.862'
p8143
sg14
S'2.802'
p8144
sg16
S'oS'
p8145
sg18
g34
sbtp8146
asS'a_s'
p8147
(lp8148
(g3
g4
(g5
g6
Ntp8149
Rp8150
(dp8151
g10
g236
sg12
S'7.63'
p8152
sg14
S'7.486'
p8153
sg16
g1596
sg18
g3
sbtp8154
a(g34
g4
(g5
g6
Ntp8155
Rp8156
(dp8157
g10
g236
sg12
S'4.446'
p8158
sg14
S'4.35'
p8159
sg16
g1596
sg18
g34
sbtp8160
a(g93
g4
(g5
g6
Ntp8161
Rp8162
(dp8163
g10
g236
sg12
S'5.496'
p8164
sg14
S'5.342'
p8165
sg16
g1596
sg18
g93
sbtp8166
a(g122
g4
(g5
g6
Ntp8167
Rp8168
(dp8169
g10
g236
sg12
S'5.654'
p8170
sg14
S'5.546'
p8171
sg16
g1596
sg18
g122
sbtp8172
asS'oS_dA'
p8173
(lp8174
(g3
g4
(g5
g6
Ntp8175
Rp8176
(dp8177
g10
S'oS'
p8178
sg12
S'6.378'
p8179
sg14
S'6.372'
p8180
sg16
S'dA'
p8181
sg18
g3
sbtp8182
asS'dA_uS'
p8183
(lp8184
(g34
g4
(g5
g6
Ntp8185
Rp8186
(dp8187
g10
S'dA'
p8188
sg12
S'7.456'
p8189
sg14
S'7.4'
p8190
sg16
S'uS'
p8191
sg18
g34
sbtp8192
asS'r_o'
p8193
(lp8194
(g56
g4
(g5
g6
Ntp8195
Rp8196
(dp8197
g10
g290
sg12
S'5.946'
p8198
sg14
S'5.866'
p8199
sg16
g429
sg18
g56
sbtp8200
a(g93
g4
(g5
g6
Ntp8201
Rp8202
(dp8203
g10
g290
sg12
S'2.304'
p8204
sg14
S'2.296'
p8205
sg16
g429
sg18
g93
sbtp8206
a(g122
g4
(g5
g6
Ntp8207
Rp8208
(dp8209
g10
g290
sg12
S'10.038'
p8210
sg14
S'10.004'
p8211
sg16
g429
sg18
g122
sbtp8212
a(g215
g4
(g5
g6
Ntp8213
Rp8214
(dp8215
g10
g290
sg12
S'3.16'
p8216
sg14
S'3.126'
p8217
sg16
g429
sg18
g215
sbtp8218
asS'p_oS'
p8219
(lp8220
(g122
g4
(g5
g6
Ntp8221
Rp8222
(dp8223
g10
g17
sg12
S'2.524'
p8224
sg14
S'2.488'
p8225
sg16
S'oS'
p8226
sg18
g122
sbtp8227
asS'a_n'
p8228
(lp8229
(g3
g4
(g5
g6
Ntp8230
Rp8231
(dp8232
g10
g236
sg12
S'3.78'
p8233
sg14
S'3.708'
p8234
sg16
g1807
sg18
g3
sbtp8235
a(g56
g4
(g5
g6
Ntp8236
Rp8237
(dp8238
g10
g236
sg12
S'8.58'
p8239
sg14
S'8.566'
p8240
sg16
g1807
sg18
g56
sbtp8241
a(g71
g4
(g5
g6
Ntp8242
Rp8243
(dp8244
g10
g236
sg12
S'2.398'
p8245
sg14
S'2.392'
p8246
sg16
g1807
sg18
g71
sbtp8247
a(g186
g4
(g5
g6
Ntp8248
Rp8249
(dp8250
g10
g236
sg12
S'10.216'
p8251
sg14
S'10.18'
p8252
sg16
g1807
sg18
g186
sbtp8253
a(g215
g4
(g5
g6
Ntp8254
Rp8255
(dp8256
g10
g236
sg12
S'3.536'
p8257
sg14
S'3.512'
p8258
sg16
g1807
sg18
g215
sbtp8259
asS'a_m'
p8260
(lp8261
(g3
g4
(g5
g6
Ntp8262
Rp8263
(dp8264
g10
g236
sg12
S'9.904'
p8265
sg14
S'9.836'
p8266
sg16
g1501
sg18
g3
sbtp8267
a(g122
g4
(g5
g6
Ntp8268
Rp8269
(dp8270
g10
g236
sg12
S'9.228'
p8271
sg14
S'9.158'
p8272
sg16
g1501
sg18
g122
sbtp8273
a(g186
g4
(g5
g6
Ntp8274
Rp8275
(dp8276
g10
g236
sg12
S'10.716'
p8277
sg14
S'10.656'
p8278
sg16
g1501
sg18
g186
sbtp8279
a(g215
g4
(g5
g6
Ntp8280
Rp8281
(dp8282
g10
g236
sg12
S'3.766'
p8283
sg14
S'3.694'
p8284
sg16
g1501
sg18
g215
sbtp8285
a(g215
g4
(g5
g6
Ntp8286
Rp8287
(dp8288
g10
g236
sg12
S'4.304'
p8289
sg14
S'4.264'
p8290
sg16
g1501
sg18
g215
sbtp8291
asS'a_l'
p8292
(lp8293
(g34
g4
(g5
g6
Ntp8294
Rp8295
(dp8296
g10
g236
sg12
S'5.554'
p8297
sg14
S'5.504'
p8298
sg16
g273
sg18
g34
sbtp8299
a(g34
g4
(g5
g6
Ntp8300
Rp8301
(dp8302
g10
g236
sg12
S'6.508'
p8303
sg14
S'6.462'
p8304
sg16
g273
sg18
g34
sbtp8305
a(g56
g4
(g5
g6
Ntp8306
Rp8307
(dp8308
g10
g236
sg12
S'11.382'
p8309
sg14
S'11.24'
p8310
sg16
g273
sg18
g56
sbtp8311
a(g122
g4
(g5
g6
Ntp8312
Rp8313
(dp8314
g10
g236
sg12
S'3.03'
p8315
sg14
S'2.966'
p8316
sg16
g273
sg18
g122
sbtp8317
a(g223
g4
(g5
g6
Ntp8318
Rp8319
(dp8320
g10
g236
sg12
S'4.556'
p8321
sg14
S'4.518'
p8322
sg16
g273
sg18
g223
sbtp8323
asS'a_i'
p8324
(lp8325
(g186
g4
(g5
g6
Ntp8326
Rp8327
(dp8328
g10
g236
sg12
S'3.744'
p8329
sg14
S'3.682'
p8330
sg16
g253
sg18
g186
sbtp8331
a(g186
g4
(g5
g6
Ntp8332
Rp8333
(dp8334
g10
g236
sg12
S'14.202'
p8335
sg14
S'14.128'
p8336
sg16
g253
sg18
g186
sbtp8337
asS'a_h'
p8338
(lp8339
(g3
g4
(g5
g6
Ntp8340
Rp8341
(dp8342
g10
g236
sg12
S'2.104'
p8343
sg14
S'2.028'
p8344
sg16
g1511
sg18
g3
sbtp8345
a(g3
g4
(g5
g6
Ntp8346
Rp8347
(dp8348
g10
g236
sg12
S'2.332'
p8349
sg14
S'2.26'
p8350
sg16
g1511
sg18
g3
sbtp8351
a(g3
g4
(g5
g6
Ntp8352
Rp8353
(dp8354
g10
g236
sg12
S'2.914'
p8355
sg14
S'2.852'
p8356
sg16
g1511
sg18
g3
sbtp8357
a(g3
g4
(g5
g6
Ntp8358
Rp8359
(dp8360
g10
g236
sg12
S'4.234'
p8361
sg14
S'4.18'
p8362
sg16
g1511
sg18
g3
sbtp8363
a(g3
g4
(g5
g6
Ntp8364
Rp8365
(dp8366
g10
g236
sg12
S'6.432'
p8367
sg14
S'6.426'
p8368
sg16
g1511
sg18
g3
sbtp8369
a(g3
g4
(g5
g6
Ntp8370
Rp8371
(dp8372
g10
g236
sg12
S'6.566'
p8373
sg14
S'6.518'
p8374
sg16
g1511
sg18
g3
sbtp8375
a(g3
g4
(g5
g6
Ntp8376
Rp8377
(dp8378
g10
g236
sg12
S'7.222'
p8379
sg14
S'7.14'
p8380
sg16
g1511
sg18
g3
sbtp8381
a(g3
g4
(g5
g6
Ntp8382
Rp8383
(dp8384
g10
g236
sg12
S'11.092'
p8385
sg14
S'11.062'
p8386
sg16
g1511
sg18
g3
sbtp8387
a(g56
g4
(g5
g6
Ntp8388
Rp8389
(dp8390
g10
g236
sg12
S'7.01'
p8391
sg14
S'6.944'
p8392
sg16
g1511
sg18
g56
sbtp8393
a(g122
g4
(g5
g6
Ntp8394
Rp8395
(dp8396
g10
g236
sg12
S'3.266'
p8397
sg14
S'3.212'
p8398
sg16
g1511
sg18
g122
sbtp8399
a(g186
g4
(g5
g6
Ntp8400
Rp8401
(dp8402
g10
g236
sg12
S'4.32'
p8403
sg14
S'4.248'
p8404
sg16
g1511
sg18
g186
sbtp8405
a(g215
g4
(g5
g6
Ntp8406
Rp8407
(dp8408
g10
g236
sg12
S'6.338'
p8409
sg14
S'6.286'
p8410
sg16
g1511
sg18
g215
sbtp8411
asS'sil_e'
p8412
(lp8413
(g34
g4
(g5
g6
Ntp8414
Rp8415
(dp8416
g10
S'sil'
p8417
sg12
S'2.016'
p8418
sg14
S'1.936'
p8419
sg16
g332
sg18
g34
sbtp8420
a(g56
g4
(g5
g6
Ntp8421
Rp8422
(dp8423
g10
S'sil'
p8424
sg12
S'11.768'
p8425
sg14
S'11.714'
p8426
sg16
g332
sg18
g56
sbtp8427
a(g56
g4
(g5
g6
Ntp8428
Rp8429
(dp8430
g10
S'sil'
p8431
sg12
S'14.25'
p8432
sg14
S'14.21'
p8433
sg16
g332
sg18
g56
sbtp8434
a(g122
g4
(g5
g6
Ntp8435
Rp8436
(dp8437
g10
S'sil'
p8438
sg12
S'1.948'
p8439
sg14
S'1.878'
p8440
sg16
g332
sg18
g122
sbtp8441
a(g186
g4
(g5
g6
Ntp8442
Rp8443
(dp8444
g10
S'sil'
p8445
sg12
S'2.136'
p8446
sg14
S'2.076'
p8447
sg16
g332
sg18
g186
sbtp8448
a(g186
g4
(g5
g6
Ntp8449
Rp8450
(dp8451
g10
S'sil'
p8452
sg12
S'8.938'
p8453
sg14
S'8.794'
p8454
sg16
g332
sg18
g186
sbtp8455
a(g215
g4
(g5
g6
Ntp8456
Rp8457
(dp8458
g10
S'sil'
p8459
sg12
S'6.136'
p8460
sg14
S'5.898'
p8461
sg16
g332
sg18
g215
sbtp8462
asS'sil_f'
p8463
(lp8464
(g93
g4
(g5
g6
Ntp8465
Rp8466
(dp8467
g10
S'sil'
p8468
sg12
S'1.75'
p8469
sg14
S'1.644'
p8470
sg16
g2853
sg18
g93
sbtp8471
asS'rA_i'
p8472
(lp8473
(g3
g4
(g5
g6
Ntp8474
Rp8475
(dp8476
g10
S'rA'
p8477
sg12
S'3.916'
p8478
sg14
S'3.894'
p8479
sg16
g253
sg18
g3
sbtp8480
a(g186
g4
(g5
g6
Ntp8481
Rp8482
(dp8483
g10
S'rA'
p8484
sg12
S'10.86'
p8485
sg14
S'10.828'
p8486
sg16
g253
sg18
g186
sbtp8487
asS'sil_a'
p8488
(lp8489
(g56
g4
(g5
g6
Ntp8490
Rp8491
(dp8492
g10
S'sil'
p8493
sg12
S'2.072'
p8494
sg14
S'1.942'
p8495
sg16
g236
sg18
g56
sbtp8496
a(g215
g4
(g5
g6
Ntp8497
Rp8498
(dp8499
g10
S'sil'
p8500
sg12
S'7.64'
p8501
sg14
S'7.576'
p8502
sg16
g236
sg18
g215
sbtp8503
asS'h_sp'
p8504
(lp8505
(g3
g4
(g5
g6
Ntp8506
Rp8507
(dp8508
g10
g1511
sg12
S'2.104'
p8509
sg14
S'2.104'
p8510
sg16
S'sp'
p8511
sg18
g3
sbtp8512
a(g3
g4
(g5
g6
Ntp8513
Rp8514
(dp8515
g10
g1511
sg12
S'2.378'
p8516
sg14
S'2.332'
p8517
sg16
S'sp'
p8518
sg18
g3
sbtp8519
a(g3
g4
(g5
g6
Ntp8520
Rp8521
(dp8522
g10
g1511
sg12
S'2.914'
p8523
sg14
S'2.914'
p8524
sg16
S'sp'
p8525
sg18
g3
sbtp8526
a(g3
g4
(g5
g6
Ntp8527
Rp8528
(dp8529
g10
g1511
sg12
S'3.598'
p8530
sg14
S'3.458'
p8531
sg16
S'sp'
p8532
sg18
g3
sbtp8533
a(g3
g4
(g5
g6
Ntp8534
Rp8535
(dp8536
g10
g1511
sg12
S'4.234'
p8537
sg14
S'4.234'
p8538
sg16
S'sp'
p8539
sg18
g3
sbtp8540
a(g3
g4
(g5
g6
Ntp8541
Rp8542
(dp8543
g10
g1511
sg12
S'5.86'
p8544
sg14
S'5.834'
p8545
sg16
S'sp'
p8546
sg18
g3
sbtp8547
a(g3
g4
(g5
g6
Ntp8548
Rp8549
(dp8550
g10
g1511
sg12
S'6.432'
p8551
sg14
S'6.432'
p8552
sg16
S'sp'
p8553
sg18
g3
sbtp8554
a(g3
g4
(g5
g6
Ntp8555
Rp8556
(dp8557
g10
g1511
sg12
S'6.566'
p8558
sg14
S'6.566'
p8559
sg16
S'sp'
p8560
sg18
g3
sbtp8561
a(g3
g4
(g5
g6
Ntp8562
Rp8563
(dp8564
g10
g1511
sg12
S'7.222'
p8565
sg14
S'7.222'
p8566
sg16
S'sp'
p8567
sg18
g3
sbtp8568
a(g3
g4
(g5
g6
Ntp8569
Rp8570
(dp8571
g10
g1511
sg12
S'10.896'
p8572
sg14
S'10.896'
p8573
sg16
S'sp'
p8574
sg18
g3
sbtp8575
a(g3
g4
(g5
g6
Ntp8576
Rp8577
(dp8578
g10
g1511
sg12
S'11.092'
p8579
sg14
S'11.092'
p8580
sg16
S'sp'
p8581
sg18
g3
sbtp8582
a(g3
g4
(g5
g6
Ntp8583
Rp8584
(dp8585
g10
g1511
sg12
S'11.802'
p8586
sg14
S'11.79'
p8587
sg16
S'sp'
p8588
sg18
g3
sbtp8589
a(g34
g4
(g5
g6
Ntp8590
Rp8591
(dp8592
g10
g1511
sg12
S'2.55'
p8593
sg14
S'2.55'
p8594
sg16
S'sp'
p8595
sg18
g34
sbtp8596
a(g56
g4
(g5
g6
Ntp8597
Rp8598
(dp8599
g10
g1511
sg12
S'6.938'
p8600
sg14
S'6.938'
p8601
sg16
S'sp'
p8602
sg18
g56
sbtp8603
a(g56
g4
(g5
g6
Ntp8604
Rp8605
(dp8606
g10
g1511
sg12
S'14.362'
p8607
sg14
S'14.362'
p8608
sg16
S'sp'
p8609
sg18
g56
sbtp8610
a(g71
g4
(g5
g6
Ntp8611
Rp8612
(dp8613
g10
g1511
sg12
S'3.762'
p8614
sg14
S'3.762'
p8615
sg16
S'sp'
p8616
sg18
g71
sbtp8617
a(g122
g4
(g5
g6
Ntp8618
Rp8619
(dp8620
g10
g1511
sg12
S'3.266'
p8621
sg14
S'3.266'
p8622
sg16
S'sp'
p8623
sg18
g122
sbtp8624
a(g186
g4
(g5
g6
Ntp8625
Rp8626
(dp8627
g10
g1511
sg12
S'2.756'
p8628
sg14
S'2.756'
p8629
sg16
S'sp'
p8630
sg18
g186
sbtp8631
a(g186
g4
(g5
g6
Ntp8632
Rp8633
(dp8634
g10
g1511
sg12
S'4.34'
p8635
sg14
S'4.32'
p8636
sg16
S'sp'
p8637
sg18
g186
sbtp8638
a(g186
g4
(g5
g6
Ntp8639
Rp8640
(dp8641
g10
g1511
sg12
S'4.726'
p8642
sg14
S'4.726'
p8643
sg16
S'sp'
p8644
sg18
g186
sbtp8645
a(g186
g4
(g5
g6
Ntp8646
Rp8647
(dp8648
g10
g1511
sg12
S'5.338'
p8649
sg14
S'5.318'
p8650
sg16
S'sp'
p8651
sg18
g186
sbtp8652
a(g186
g4
(g5
g6
Ntp8653
Rp8654
(dp8655
g10
g1511
sg12
S'6.396'
p8656
sg14
S'6.37'
p8657
sg16
S'sp'
p8658
sg18
g186
sbtp8659
a(g186
g4
(g5
g6
Ntp8660
Rp8661
(dp8662
g10
g1511
sg12
S'7.724'
p8663
sg14
S'7.724'
p8664
sg16
S'sp'
p8665
sg18
g186
sbtp8666
a(g186
g4
(g5
g6
Ntp8667
Rp8668
(dp8669
g10
g1511
sg12
S'10.15'
p8670
sg14
S'10.15'
p8671
sg16
S'sp'
p8672
sg18
g186
sbtp8673
a(g186
g4
(g5
g6
Ntp8674
Rp8675
(dp8676
g10
g1511
sg12
S'13.73'
p8677
sg14
S'13.73'
p8678
sg16
S'sp'
p8679
sg18
g186
sbtp8680
a(g186
g4
(g5
g6
Ntp8681
Rp8682
(dp8683
g10
g1511
sg12
S'14.636'
p8684
sg14
S'14.604'
p8685
sg16
S'sp'
p8686
sg18
g186
sbtp8687
a(g215
g4
(g5
g6
Ntp8688
Rp8689
(dp8690
g10
g1511
sg12
S'2.822'
p8691
sg14
S'2.822'
p8692
sg16
S'sp'
p8693
sg18
g215
sbtp8694
a(g215
g4
(g5
g6
Ntp8695
Rp8696
(dp8697
g10
g1511
sg12
S'3.254'
p8698
sg14
S'3.254'
p8699
sg16
S'sp'
p8700
sg18
g215
sbtp8701
a(g223
g4
(g5
g6
Ntp8702
Rp8703
(dp8704
g10
g1511
sg12
S'5.684'
p8705
sg14
S'5.684'
p8706
sg16
S'sp'
p8707
sg18
g223
sbtp8708
a(g223
g4
(g5
g6
Ntp8709
Rp8710
(dp8711
g10
g1511
sg12
S'6.092'
p8712
sg14
S'6.092'
p8713
sg16
S'sp'
p8714
sg18
g223
sbtp8715
asS'sil_l'
p8716
(lp8717
(g3
g4
(g5
g6
Ntp8718
Rp8719
(dp8720
g10
S'sil'
p8721
sg12
S'10.71'
p8722
sg14
S'10.688'
p8723
sg16
g273
sg18
g3
sbtp8724
a(g186
g4
(g5
g6
Ntp8725
Rp8726
(dp8727
g10
S'sil'
p8728
sg12
S'9.952'
p8729
sg14
S'9.934'
p8730
sg16
g273
sg18
g186
sbtp8731
a(g223
g4
(g5
g6
Ntp8732
Rp8733
(dp8734
g10
S'sil'
p8735
sg12
S'4.182'
p8736
sg14
S'4.14'
p8737
sg16
g273
sg18
g223
sbtp8738
asS'sil_m'
p8739
(lp8740
(g3
g4
(g5
g6
Ntp8741
Rp8742
(dp8743
g10
S'sil'
p8744
sg12
S'1.872'
p8745
sg14
S'1.8240001'
p8746
sg16
g1501
sg18
g3
sbtp8747
a(g34
g4
(g5
g6
Ntp8748
Rp8749
(dp8750
g10
S'sil'
p8751
sg12
S'6.416'
p8752
sg14
S'6.35'
p8753
sg16
g1501
sg18
g34
sbtp8754
a(g56
g4
(g5
g6
Ntp8755
Rp8756
(dp8757
g10
S'sil'
p8758
sg12
S'12.796'
p8759
sg14
S'12.728'
p8760
sg16
g1501
sg18
g56
sbtp8761
asS'sil_n'
p8762
(lp8763
(g56
g4
(g5
g6
Ntp8764
Rp8765
(dp8766
g10
S'sil'
p8767
sg12
S'6.816'
p8768
sg14
S'6.738'
p8769
sg16
g1807
sg18
g56
sbtp8770
asS'rA_a'
p8771
(lp8772
(g34
g4
(g5
g6
Ntp8773
Rp8774
(dp8775
g10
S'rA'
p8776
sg12
S'9.798'
p8777
sg14
S'9.754'
p8778
sg16
g236
sg18
g34
sbtp8779
a(g71
g4
(g5
g6
Ntp8780
Rp8781
(dp8782
g10
S'rA'
p8783
sg12
S'4.478'
p8784
sg14
S'4.394'
p8785
sg16
g236
sg18
g71
sbtp8786
a(g223
g4
(g5
g6
Ntp8787
Rp8788
(dp8789
g10
S'rA'
p8790
sg12
S'3.346'
p8791
sg14
S'3.336'
p8792
sg16
g236
sg18
g223
sbtp8793
asS'sil_i'
p8794
(lp8795
(g3
g4
(g5
g6
Ntp8796
Rp8797
(dp8798
g10
S'sil'
p8799
sg12
S'6.222'
p8800
sg14
S'6.158'
p8801
sg16
g253
sg18
g3
sbtp8802
asS'rA_e'
p8803
(lp8804
(g3
g4
(g5
g6
Ntp8805
Rp8806
(dp8807
g10
S'rA'
p8808
sg12
S'6.96'
p8809
sg14
S'6.83'
p8810
sg16
g332
sg18
g3
sbtp8811
a(g34
g4
(g5
g6
Ntp8812
Rp8813
(dp8814
g10
S'rA'
p8815
sg12
S'5.874'
p8816
sg14
S'5.774'
p8817
sg16
g332
sg18
g34
sbtp8818
a(g56
g4
(g5
g6
Ntp8819
Rp8820
(dp8821
g10
S'rA'
p8822
sg12
S'14.484'
p8823
sg14
S'14.458'
p8824
sg16
g332
sg18
g56
sbtp8825
a(g223
g4
(g5
g6
Ntp8826
Rp8827
(dp8828
g10
S'rA'
p8829
sg12
S'5.99'
p8830
sg14
S'5.98'
p8831
sg16
g332
sg18
g223
sbtp8832
asS'sil_s'
p8833
(lp8834
(g71
g4
(g5
g6
Ntp8835
Rp8836
(dp8837
g10
S'sil'
p8838
sg12
S'2.076'
p8839
sg14
S'1.95'
p8840
sg16
g1596
sg18
g71
sbtp8841
a(g93
g4
(g5
g6
Ntp8842
Rp8843
(dp8844
g10
S'sil'
p8845
sg12
S'3.966'
p8846
sg14
S'3.84'
p8847
sg16
g1596
sg18
g93
sbtp8848
a(g186
g4
(g5
g6
Ntp8849
Rp8850
(dp8851
g10
S'sil'
p8852
sg12
S'5.92'
p8853
sg14
S'5.848'
p8854
sg16
g1596
sg18
g186
sbtp8855
asS'b_sp'
p8856
(lp8857
(g56
g4
(g5
g6
Ntp8858
Rp8859
(dp8860
g10
g6893
sg12
S'13.394'
p8861
sg14
S'13.394'
p8862
sg16
S'sp'
p8863
sg18
g56
sbtp8864
asS'r_k_cl'
p8865
(lp8866
(g34
g4
(g5
g6
Ntp8867
Rp8868
(dp8869
g10
g290
sg12
S'9.994'
p8870
sg14
S'9.984'
p8871
sg16
S'k_cl'
p8872
sg18
g34
sbtp8873
asS's_t_cl'
p8874
(lp8875
(g93
g4
(g5
g6
Ntp8876
Rp8877
(dp8878
g10
g1596
sg12
S'6.006'
p8879
sg14
S'5.978'
p8880
sg16
S't_cl'
p8881
sg18
g93
sbtp8882
asS'uS_r'
p8883
(lp8884
(g215
g4
(g5
g6
Ntp8885
Rp8886
(dp8887
g10
S'uS'
p8888
sg12
S'1.972'
p8889
sg14
S'1.94'
p8890
sg16
g290
sg18
g215
sbtp8891
asS'g_r'
p8892
(lp8893
(g71
g4
(g5
g6
Ntp8894
Rp8895
(dp8896
g10
g5631
sg12
S'2.632'
p8897
sg14
S'2.584'
p8898
sg16
g290
sg18
g71
sbtp8899
a(g71
g4
(g5
g6
Ntp8900
Rp8901
(dp8902
g10
g5631
sg12
S'4.688'
p8903
sg14
S'4.65'
p8904
sg16
g290
sg18
g71
sbtp8905
a(g93
g4
(g5
g6
Ntp8906
Rp8907
(dp8908
g10
g5631
sg12
S'3.252'
p8909
sg14
S'3.224'
p8910
sg16
g290
sg18
g93
sbtp8911
a(g223
g4
(g5
g6
Ntp8912
Rp8913
(dp8914
g10
g5631
sg12
S'4.316'
p8915
sg14
S'4.29'
p8916
sg16
g290
sg18
g223
sbtp8917
asS'g_l'
p8918
(lp8919
(g215
g4
(g5
g6
Ntp8920
Rp8921
(dp8922
g10
g5631
sg12
S'5.332'
p8923
sg14
S'5.278'
p8924
sg16
g273
sg18
g215
sbtp8925
asS'iS_p_cl'
p8926
(lp8927
(g3
g4
(g5
g6
Ntp8928
Rp8929
(dp8930
g10
S'iS'
p8931
sg12
S'5.498'
p8932
sg14
S'5.49'
p8933
sg16
S'p_cl'
p8934
sg18
g3
sbtp8935
a(g56
g4
(g5
g6
Ntp8936
Rp8937
(dp8938
g10
S'iS'
p8939
sg12
S'2.862'
p8940
sg14
S'2.854'
p8941
sg16
S'p_cl'
p8942
sg18
g56
sbtp8943
a(g122
g4
(g5
g6
Ntp8944
Rp8945
(dp8946
g10
S'iS'
p8947
sg12
S'11.164'
p8948
sg14
S'11.156'
p8949
sg16
S'p_cl'
p8950
sg18
g122
sbtp8951
asS'g_i'
p8952
(lp8953
(g215
g4
(g5
g6
Ntp8954
Rp8955
(dp8956
g10
g5631
sg12
S'8.426'
p8957
sg14
S'8.368'
p8958
sg16
g253
sg18
g215
sbtp8959
asS'aS_m'
p8960
(lp8961
(g223
g4
(g5
g6
Ntp8962
Rp8963
(dp8964
g10
S'aS'
p8965
sg12
S'5.206'
p8966
sg14
S'5.102'
p8967
sg16
g1501
sg18
g223
sbtp8968
asS'uS_n'
p8969
(lp8970
(g56
g4
(g5
g6
Ntp8971
Rp8972
(dp8973
g10
S'uS'
p8974
sg12
S'9.034'
p8975
sg14
S'9.016'
p8976
sg16
g1807
sg18
g56
sbtp8977
a(g122
g4
(g5
g6
Ntp8978
Rp8979
(dp8980
g10
S'uS'
p8981
sg12
S'10.988'
p8982
sg14
S'10.952'
p8983
sg16
g1807
sg18
g122
sbtp8984
asS'uS_h'
p8985
(lp8986
(g3
g4
(g5
g6
Ntp8987
Rp8988
(dp8989
g10
S'uS'
p8990
sg12
S'3.458'
p8991
sg14
S'3.346'
p8992
sg16
g1511
sg18
g3
sbtp8993
asS't_i'
p8994
(lp8995
(g3
g4
(g5
g6
Ntp8996
Rp8997
(dp8998
g10
g670
sg12
S'9.106'
p8999
sg14
S'9.024'
p9000
sg16
g253
sg18
g3
sbtp9001
a(g3
g4
(g5
g6
Ntp9002
Rp9003
(dp9004
g10
g670
sg12
S'11.382'
p9005
sg14
S'11.318'
p9006
sg16
g253
sg18
g3
sbtp9007
a(g34
g4
(g5
g6
Ntp9008
Rp9009
(dp9010
g10
g670
sg12
S'7.728'
p9011
sg14
S'7.636'
p9012
sg16
g253
sg18
g34
sbtp9013
a(g93
g4
(g5
g6
Ntp9014
Rp9015
(dp9016
g10
g670
sg12
S'6.086'
p9017
sg14
S'6.044'
p9018
sg16
g253
sg18
g93
sbtp9019
a(g122
g4
(g5
g6
Ntp9020
Rp9021
(dp9022
g10
g670
sg12
S'11.546'
p9023
sg14
S'11.484'
p9024
sg16
g253
sg18
g122
sbtp9025
a(g122
g4
(g5
g6
Ntp9026
Rp9027
(dp9028
g10
g670
sg12
S'11.994'
p9029
sg14
S'11.936'
p9030
sg16
g253
sg18
g122
sbtp9031
a(g215
g4
(g5
g6
Ntp9032
Rp9033
(dp9034
g10
g670
sg12
S'7.084'
p9035
sg14
S'6.972'
p9036
sg16
g253
sg18
g215
sbtp9037
asS't_o'
p9038
(lp9039
(g56
g4
(g5
g6
Ntp9040
Rp9041
(dp9042
g10
g670
sg12
S'5.436'
p9043
sg14
S'5.418'
p9044
sg16
g429
sg18
g56
sbtp9045
a(g56
g4
(g5
g6
Ntp9046
Rp9047
(dp9048
g10
g670
sg12
S'7.666'
p9049
sg14
S'7.64'
p9050
sg16
g429
sg18
g56
sbtp9051
a(g71
g4
(g5
g6
Ntp9052
Rp9053
(dp9054
g10
g670
sg12
S'4.188'
p9055
sg14
S'4.15'
p9056
sg16
g429
sg18
g71
sbtp9057
a(g93
g4
(g5
g6
Ntp9058
Rp9059
(dp9060
g10
g670
sg12
S'2.604'
p9061
sg14
S'2.588'
p9062
sg16
g429
sg18
g93
sbtp9063
a(g93
g4
(g5
g6
Ntp9064
Rp9065
(dp9066
g10
g670
sg12
S'7.148'
p9067
sg14
S'6.946'
p9068
sg16
g429
sg18
g93
sbtp9069
a(g122
g4
(g5
g6
Ntp9070
Rp9071
(dp9072
g10
g670
sg12
S'4.694'
p9073
sg14
S'4.662'
p9074
sg16
g429
sg18
g122
sbtp9075
a(g186
g4
(g5
g6
Ntp9076
Rp9077
(dp9078
g10
g670
sg12
S'13.7'
p9079
sg14
S'13.664'
p9080
sg16
g429
sg18
g186
sbtp9081
a(g215
g4
(g5
g6
Ntp9082
Rp9083
(dp9084
g10
g670
sg12
S'4.07'
p9085
sg14
S'3.99'
p9086
sg16
g429
sg18
g215
sbtp9087
a(g215
g4
(g5
g6
Ntp9088
Rp9089
(dp9090
g10
g670
sg12
S'8.546'
p9091
sg14
S'8.504'
p9092
sg16
g429
sg18
g215
sbtp9093
asS'o_p_cl'
p9094
(lp9095
(g34
g4
(g5
g6
Ntp9096
Rp9097
(dp9098
g10
g429
sg12
S'3.326'
p9099
sg14
S'3.29'
p9100
sg16
S'p_cl'
p9101
sg18
g34
sbtp9102
a(g34
g4
(g5
g6
Ntp9103
Rp9104
(dp9105
g10
g429
sg12
S'9.634'
p9106
sg14
S'9.612'
p9107
sg16
S'p_cl'
p9108
sg18
g34
sbtp9109
a(g34
g4
(g5
g6
Ntp9110
Rp9111
(dp9112
g10
g429
sg12
S'10.442'
p9113
sg14
S'10.416'
p9114
sg16
S'p_cl'
p9115
sg18
g34
sbtp9116
a(g93
g4
(g5
g6
Ntp9117
Rp9118
(dp9119
g10
g429
sg12
S'2.202'
p9120
sg14
S'2.16'
p9121
sg16
S'p_cl'
p9122
sg18
g93
sbtp9123
a(g93
g4
(g5
g6
Ntp9124
Rp9125
(dp9126
g10
g429
sg12
S'2.354'
p9127
sg14
S'2.304'
p9128
sg16
S'p_cl'
p9129
sg18
g93
sbtp9130
a(g93
g4
(g5
g6
Ntp9131
Rp9132
(dp9133
g10
g429
sg12
S'2.628'
p9134
sg14
S'2.604'
p9135
sg16
S'p_cl'
p9136
sg18
g93
sbtp9137
a(g93
g4
(g5
g6
Ntp9138
Rp9139
(dp9140
g10
g429
sg12
S'5.754'
p9141
sg14
S'5.718'
p9142
sg16
S'p_cl'
p9143
sg18
g93
sbtp9144
asS't_a'
p9145
(lp9146
(g56
g4
(g5
g6
Ntp9147
Rp9148
(dp9149
g10
g670
sg12
S'7.138'
p9150
sg14
S'7.104'
p9151
sg16
g236
sg18
g56
sbtp9152
a(g71
g4
(g5
g6
Ntp9153
Rp9154
(dp9155
g10
g670
sg12
S'5.222'
p9156
sg14
S'5.184'
p9157
sg16
g236
sg18
g71
sbtp9158
a(g122
g4
(g5
g6
Ntp9159
Rp9160
(dp9161
g10
g670
sg12
S'6.788'
p9162
sg14
S'6.664'
p9163
sg16
g236
sg18
g122
sbtp9164
a(g122
g4
(g5
g6
Ntp9165
Rp9166
(dp9167
g10
g670
sg12
S'12.404'
p9168
sg14
S'12.254'
p9169
sg16
g236
sg18
g122
sbtp9170
a(g186
g4
(g5
g6
Ntp9171
Rp9172
(dp9173
g10
g670
sg12
S'3.682'
p9174
sg14
S'3.662'
p9175
sg16
g236
sg18
g186
sbtp9176
a(g186
g4
(g5
g6
Ntp9177
Rp9178
(dp9179
g10
g670
sg12
S'12.674'
p9180
sg14
S'12.578'
p9181
sg16
g236
sg18
g186
sbtp9182
a(g186
g4
(g5
g6
Ntp9183
Rp9184
(dp9185
g10
g670
sg12
S'14.128'
p9186
sg14
S'14.108'
p9187
sg16
g236
sg18
g186
sbtp9188
a(g215
g4
(g5
g6
Ntp9189
Rp9190
(dp9191
g10
g670
sg12
S'3.694'
p9192
sg14
S'3.642'
p9193
sg16
g236
sg18
g215
sbtp9194
a(g223
g4
(g5
g6
Ntp9195
Rp9196
(dp9197
g10
g670
sg12
S'6.674'
p9198
sg14
S'6.616'
p9199
sg16
g236
sg18
g223
sbtp9200
asS't_e'
p9201
(lp9202
(g34
g4
(g5
g6
Ntp9203
Rp9204
(dp9205
g10
g670
sg12
S'2.256'
p9206
sg14
S'2.19'
p9207
sg16
g332
sg18
g34
sbtp9208
a(g34
g4
(g5
g6
Ntp9209
Rp9210
(dp9211
g10
g670
sg12
S'3.616'
p9212
sg14
S'3.552'
p9213
sg16
g332
sg18
g34
sbtp9214
a(g34
g4
(g5
g6
Ntp9215
Rp9216
(dp9217
g10
g670
sg12
S'8.694'
p9218
sg14
S'8.654'
p9219
sg16
g332
sg18
g34
sbtp9220
a(g34
g4
(g5
g6
Ntp9221
Rp9222
(dp9223
g10
g670
sg12
S'9.022'
p9224
sg14
S'8.926'
p9225
sg16
g332
sg18
g34
sbtp9226
a(g71
g4
(g5
g6
Ntp9227
Rp9228
(dp9229
g10
g670
sg12
S'3.612'
p9230
sg14
S'3.568'
p9231
sg16
g332
sg18
g71
sbtp9232
a(g122
g4
(g5
g6
Ntp9233
Rp9234
(dp9235
g10
g670
sg12
S'9.72'
p9236
sg14
S'9.682'
p9237
sg16
g332
sg18
g122
sbtp9238
a(g186
g4
(g5
g6
Ntp9239
Rp9240
(dp9241
g10
g670
sg12
S'2.398'
p9242
sg14
S'2.356'
p9243
sg16
g332
sg18
g186
sbtp9244
a(g186
g4
(g5
g6
Ntp9245
Rp9246
(dp9247
g10
g670
sg12
S'3.206'
p9248
sg14
S'3.168'
p9249
sg16
g332
sg18
g186
sbtp9250
a(g186
g4
(g5
g6
Ntp9251
Rp9252
(dp9253
g10
g670
sg12
S'6.952'
p9254
sg14
S'6.906'
p9255
sg16
g332
sg18
g186
sbtp9256
a(g186
g4
(g5
g6
Ntp9257
Rp9258
(dp9259
g10
g670
sg12
S'13.412'
p9260
sg14
S'13.364'
p9261
sg16
g332
sg18
g186
sbtp9262
asS'dA_iS'
p9263
(lp9264
(g93
g4
(g5
g6
Ntp9265
Rp9266
(dp9267
g10
S'dA'
p9268
sg12
S'5.708'
p9269
sg14
S'5.618'
p9270
sg16
S'iS'
p9271
sg18
g93
sbtp9272
a(g122
g4
(g5
g6
Ntp9273
Rp9274
(dp9275
g10
S'dA'
p9276
sg12
S'12.06'
p9277
sg14
S'12'
p9278
sg16
S'iS'
p9279
sg18
g122
sbtp9280
asS't_r'
p9281
(lp9282
(g56
g4
(g5
g6
Ntp9283
Rp9284
(dp9285
g10
g670
sg12
S'5.866'
p9286
sg14
S'5.828'
p9287
sg16
g290
sg18
g56
sbtp9288
a(g56
g4
(g5
g6
Ntp9289
Rp9290
(dp9291
g10
g670
sg12
S'7.84'
p9292
sg14
S'7.814'
p9293
sg16
g290
sg18
g56
sbtp9294
a(g56
g4
(g5
g6
Ntp9295
Rp9296
(dp9297
g10
g670
sg12
S'8.274'
p9298
sg14
S'8.252'
p9299
sg16
g290
sg18
g56
sbtp9300
a(g93
g4
(g5
g6
Ntp9301
Rp9302
(dp9303
g10
g670
sg12
S'6.8'
p9304
sg14
S'6.756'
p9305
sg16
g290
sg18
g93
sbtp9306
a(g186
g4
(g5
g6
Ntp9307
Rp9308
(dp9309
g10
g670
sg12
S'12.384'
p9310
sg14
S'12.362'
p9311
sg16
g290
sg18
g186
sbtp9312
a(g215
g4
(g5
g6
Ntp9313
Rp9314
(dp9315
g10
g670
sg12
S'3.126'
p9316
sg14
S'3.104'
p9317
sg16
g290
sg18
g215
sbtp9318
a(g223
g4
(g5
g6
Ntp9319
Rp9320
(dp9321
g10
g670
sg12
S'5.416'
p9322
sg14
S'5.396'
p9323
sg16
g290
sg18
g223
sbtp9324
asS'l_sp'
p9325
(lp9326
(g34
g4
(g5
g6
Ntp9327
Rp9328
(dp9329
g10
g273
sg12
S'5.554'
p9330
sg14
S'5.554'
p9331
sg16
S'sp'
p9332
sg18
g34
sbtp9333
a(g34
g4
(g5
g6
Ntp9334
Rp9335
(dp9336
g10
g273
sg12
S'7.958'
p9337
sg14
S'7.83'
p9338
sg16
S'sp'
p9339
sg18
g34
sbtp9340
a(g56
g4
(g5
g6
Ntp9341
Rp9342
(dp9343
g10
g273
sg12
S'4.998'
p9344
sg14
S'4.998'
p9345
sg16
S'sp'
p9346
sg18
g56
sbtp9347
a(g56
g4
(g5
g6
Ntp9348
Rp9349
(dp9350
g10
g273
sg12
S'7.324'
p9351
sg14
S'7.324'
p9352
sg16
S'sp'
p9353
sg18
g56
sbtp9354
a(g56
g4
(g5
g6
Ntp9355
Rp9356
(dp9357
g10
g273
sg12
S'9.368'
p9358
sg14
S'9.32'
p9359
sg16
S'sp'
p9360
sg18
g56
sbtp9361
a(g56
g4
(g5
g6
Ntp9362
Rp9363
(dp9364
g10
g273
sg12
S'11.382'
p9365
sg14
S'11.382'
p9366
sg16
S'sp'
p9367
sg18
g56
sbtp9368
a(g56
g4
(g5
g6
Ntp9369
Rp9370
(dp9371
g10
g273
sg12
S'11.818'
p9372
sg14
S'11.818'
p9373
sg16
S'sp'
p9374
sg18
g56
sbtp9375
a(g56
g4
(g5
g6
Ntp9376
Rp9377
(dp9378
g10
g273
sg12
S'12.334'
p9379
sg14
S'12.328'
p9380
sg16
S'sp'
p9381
sg18
g56
sbtp9382
a(g56
g4
(g5
g6
Ntp9383
Rp9384
(dp9385
g10
g273
sg12
S'14.016'
p9386
sg14
S'13.99'
p9387
sg16
S'sp'
p9388
sg18
g56
sbtp9389
a(g71
g4
(g5
g6
Ntp9390
Rp9391
(dp9392
g10
g273
sg12
S'5.586'
p9393
sg14
S'5.586'
p9394
sg16
S'sp'
p9395
sg18
g71
sbtp9396
a(g122
g4
(g5
g6
Ntp9397
Rp9398
(dp9399
g10
g273
sg12
S'8.112'
p9400
sg14
S'8.112'
p9401
sg16
S'sp'
p9402
sg18
g122
sbtp9403
a(g122
g4
(g5
g6
Ntp9404
Rp9405
(dp9406
g10
g273
sg12
S'8.454'
p9407
sg14
S'8.454'
p9408
sg16
S'sp'
p9409
sg18
g122
sbtp9410
a(g186
g4
(g5
g6
Ntp9411
Rp9412
(dp9413
g10
g273
sg12
S'13.168'
p9414
sg14
S'13.168'
p9415
sg16
S'sp'
p9416
sg18
g186
sbtp9417
a(g215
g4
(g5
g6
Ntp9418
Rp9419
(dp9420
g10
g273
sg12
S'5.006'
p9421
sg14
S'5.006'
p9422
sg16
S'sp'
p9423
sg18
g215
sbtp9424
asS'iSV_n'
p9425
(lp9426
(g186
g4
(g5
g6
Ntp9427
Rp9428
(dp9429
g10
S'iSV'
p9430
sg12
S'11.576'
p9431
sg14
S'11.52'
p9432
sg16
g1807
sg18
g186
sbtp9433
asS't_sp'
p9434
(lp9435
(g34
g4
(g5
g6
Ntp9436
Rp9437
(dp9438
g10
g670
sg12
S'5.004'
p9439
sg14
S'5.004'
p9440
sg16
S'sp'
p9441
sg18
g34
sbtp9442
asS'p_eS'
p9443
(lp9444
(g122
g4
(g5
g6
Ntp9445
Rp9446
(dp9447
g10
g17
sg12
S'4.608'
p9448
sg14
S'4.518'
p9449
sg16
S'eS'
p9450
sg18
g122
sbtp9451
asS'i_dA'
p9452
(lp9453
(g122
g4
(g5
g6
Ntp9454
Rp9455
(dp9456
g10
g253
sg12
S'12'
p9457
sg14
S'11.994'
p9458
sg16
S'dA'
p9459
sg18
g122
sbtp9460
asS'sp_gA'
p9461
(lp9462
(g3
g4
(g5
g6
Ntp9463
Rp9464
(dp9465
g10
S'sp'
p9466
sg12
S'4.388'
p9467
sg14
S'4.38'
p9468
sg16
S'gA'
p9469
sg18
g3
sbtp9470
asS'dA_o'
p9471
(lp9472
(g3
g4
(g5
g6
Ntp9473
Rp9474
(dp9475
g10
S'dA'
p9476
sg12
S'5.108'
p9477
sg14
S'5.102'
p9478
sg16
g429
sg18
g3
sbtp9479
a(g34
g4
(g5
g6
Ntp9480
Rp9481
(dp9482
g10
S'dA'
p9483
sg12
S'3.858'
p9484
sg14
S'3.79'
p9485
sg16
g429
sg18
g34
sbtp9486
a(g34
g4
(g5
g6
Ntp9487
Rp9488
(dp9489
g10
S'dA'
p9490
sg12
S'10.416'
p9491
sg14
S'10.408'
p9492
sg16
g429
sg18
g34
sbtp9493
a(g56
g4
(g5
g6
Ntp9494
Rp9495
(dp9496
g10
S'dA'
p9497
sg12
S'4.758'
p9498
sg14
S'4.744'
p9499
sg16
g429
sg18
g56
sbtp9500
a(g93
g4
(g5
g6
Ntp9501
Rp9502
(dp9503
g10
S'dA'
p9504
sg12
S'6.356'
p9505
sg14
S'6.342'
p9506
sg16
g429
sg18
g93
sbtp9507
a(g215
g4
(g5
g6
Ntp9508
Rp9509
(dp9510
g10
S'dA'
p9511
sg12
S'4.92'
p9512
sg14
S'4.91'
p9513
sg16
g429
sg18
g215
sbtp9514
a(g215
g4
(g5
g6
Ntp9515
Rp9516
(dp9517
g10
S'dA'
p9518
sg12
S'7.532'
p9519
sg14
S'7.526'
p9520
sg16
g429
sg18
g215
sbtp9521
asS'sil_k_cl'
p9522
(lp9523
(g93
g4
(g5
g6
Ntp9524
Rp9525
(dp9526
g10
S'sil'
p9527
sg12
S'5.278'
p9528
sg14
S'5.256'
p9529
sg16
S'k_cl'
p9530
sg18
g93
sbtp9531
a(g223
g4
(g5
g6
Ntp9532
Rp9533
(dp9534
g10
S'sil'
p9535
sg12
S'2.766'
p9536
sg14
S'2.7219999'
p9537
sg16
S'k_cl'
p9538
sg18
g223
sbtp9539
asS'dA_i'
p9540
(lp9541
(g3
g4
(g5
g6
Ntp9542
Rp9543
(dp9544
g10
S'dA'
p9545
sg12
S'3.846'
p9546
sg14
S'3.79'
p9547
sg16
g253
sg18
g3
sbtp9548
a(g3
g4
(g5
g6
Ntp9549
Rp9550
(dp9551
g10
S'dA'
p9552
sg12
S'5.32'
p9553
sg14
S'5.238'
p9554
sg16
g253
sg18
g3
sbtp9555
a(g93
g4
(g5
g6
Ntp9556
Rp9557
(dp9558
g10
S'dA'
p9559
sg12
S'2.012'
p9560
sg14
S'1.96'
p9561
sg16
g253
sg18
g93
sbtp9562
a(g93
g4
(g5
g6
Ntp9563
Rp9564
(dp9565
g10
S'dA'
p9566
sg12
S'2.98'
p9567
sg14
S'2.95'
p9568
sg16
g253
sg18
g93
sbtp9569
asS'dA_e'
p9570
(lp9571
(g3
g4
(g5
g6
Ntp9572
Rp9573
(dp9574
g10
S'dA'
p9575
sg12
S'2.158'
p9576
sg14
S'2.14'
p9577
sg16
g332
sg18
g3
sbtp9578
a(g3
g4
(g5
g6
Ntp9579
Rp9580
(dp9581
g10
S'dA'
p9582
sg12
S'3.012'
p9583
sg14
S'2.96'
p9584
sg16
g332
sg18
g3
sbtp9585
a(g3
g4
(g5
g6
Ntp9586
Rp9587
(dp9588
g10
S'dA'
p9589
sg12
S'5.232'
p9590
sg14
S'5.226'
p9591
sg16
g332
sg18
g3
sbtp9592
a(g3
g4
(g5
g6
Ntp9593
Rp9594
(dp9595
g10
S'dA'
p9596
sg12
S'10.998'
p9597
sg14
S'10.942'
p9598
sg16
g332
sg18
g3
sbtp9599
a(g3
g4
(g5
g6
Ntp9600
Rp9601
(dp9602
g10
S'dA'
p9603
sg12
S'11.668'
p9604
sg14
S'11.6'
p9605
sg16
g332
sg18
g3
sbtp9606
a(g34
g4
(g5
g6
Ntp9607
Rp9608
(dp9609
g10
S'dA'
p9610
sg12
S'2.628'
p9611
sg14
S'2.622'
p9612
sg16
g332
sg18
g34
sbtp9613
a(g56
g4
(g5
g6
Ntp9614
Rp9615
(dp9616
g10
S'dA'
p9617
sg12
S'3.07'
p9618
sg14
S'3.054'
p9619
sg16
g332
sg18
g56
sbtp9620
a(g56
g4
(g5
g6
Ntp9621
Rp9622
(dp9623
g10
S'dA'
p9624
sg12
S'3.668'
p9625
sg14
S'3.614'
p9626
sg16
g332
sg18
g56
sbtp9627
a(g56
g4
(g5
g6
Ntp9628
Rp9629
(dp9630
g10
S'dA'
p9631
sg12
S'10.952'
p9632
sg14
S'10.916'
p9633
sg16
g332
sg18
g56
sbtp9634
a(g56
g4
(g5
g6
Ntp9635
Rp9636
(dp9637
g10
S'dA'
p9638
sg12
S'13.472'
p9639
sg14
S'13.444'
p9640
sg16
g332
sg18
g56
sbtp9641
a(g71
g4
(g5
g6
Ntp9642
Rp9643
(dp9644
g10
S'dA'
p9645
sg12
S'4.95'
p9646
sg14
S'4.944'
p9647
sg16
g332
sg18
g71
sbtp9648
a(g71
g4
(g5
g6
Ntp9649
Rp9650
(dp9651
g10
S'dA'
p9652
sg12
S'5.67'
p9653
sg14
S'5.626'
p9654
sg16
g332
sg18
g71
sbtp9655
a(g122
g4
(g5
g6
Ntp9656
Rp9657
(dp9658
g10
S'dA'
p9659
sg12
S'3.346'
p9660
sg14
S'3.3'
p9661
sg16
g332
sg18
g122
sbtp9662
a(g122
g4
(g5
g6
Ntp9663
Rp9664
(dp9665
g10
S'dA'
p9666
sg12
S'8.81'
p9667
sg14
S'8.766'
p9668
sg16
g332
sg18
g122
sbtp9669
a(g122
g4
(g5
g6
Ntp9670
Rp9671
(dp9672
g10
S'dA'
p9673
sg12
S'11.33'
p9674
sg14
S'11.324'
p9675
sg16
g332
sg18
g122
sbtp9676
a(g186
g4
(g5
g6
Ntp9677
Rp9678
(dp9679
g10
S'dA'
p9680
sg12
S'4.428'
p9681
sg14
S'4.356'
p9682
sg16
g332
sg18
g186
sbtp9683
a(g186
g4
(g5
g6
Ntp9684
Rp9685
(dp9686
g10
S'dA'
p9687
sg12
S'7.426'
p9688
sg14
S'7.416'
p9689
sg16
g332
sg18
g186
sbtp9690
a(g186
g4
(g5
g6
Ntp9691
Rp9692
(dp9693
g10
S'dA'
p9694
sg12
S'7.868'
p9695
sg14
S'7.804'
p9696
sg16
g332
sg18
g186
sbtp9697
a(g186
g4
(g5
g6
Ntp9698
Rp9699
(dp9700
g10
S'dA'
p9701
sg12
S'10.65'
p9702
sg14
S'10.644'
p9703
sg16
g332
sg18
g186
sbtp9704
a(g186
g4
(g5
g6
Ntp9705
Rp9706
(dp9707
g10
S'dA'
p9708
sg12
S'13.044'
p9709
sg14
S'13.038'
p9710
sg16
g332
sg18
g186
sbtp9711
a(g215
g4
(g5
g6
Ntp9712
Rp9713
(dp9714
g10
S'dA'
p9715
sg12
S'2.7'
p9716
sg14
S'2.694'
p9717
sg16
g332
sg18
g215
sbtp9718
a(g215
g4
(g5
g6
Ntp9719
Rp9720
(dp9721
g10
S'dA'
p9722
sg12
S'3.322'
p9723
sg14
S'3.314'
p9724
sg16
g332
sg18
g215
sbtp9725
a(g215
g4
(g5
g6
Ntp9726
Rp9727
(dp9728
g10
S'dA'
p9729
sg12
S'4.096'
p9730
sg14
S'4.09'
p9731
sg16
g332
sg18
g215
sbtp9732
a(g215
g4
(g5
g6
Ntp9733
Rp9734
(dp9735
g10
S'dA'
p9736
sg12
S'4.95'
p9737
sg14
S'4.944'
p9738
sg16
g332
sg18
g215
sbtp9739
a(g223
g4
(g5
g6
Ntp9740
Rp9741
(dp9742
g10
S'dA'
p9743
sg12
S'6.144'
p9744
sg14
S'6.138'
p9745
sg16
g332
sg18
g223
sbtp9746
asS'dA_a'
p9747
(lp9748
(g3
g4
(g5
g6
Ntp9749
Rp9750
(dp9751
g10
S'dA'
p9752
sg12
S'4.18'
p9753
sg14
S'4.174'
p9754
sg16
g236
sg18
g3
sbtp9755
a(g3
g4
(g5
g6
Ntp9756
Rp9757
(dp9758
g10
S'dA'
p9759
sg12
S'6.426'
p9760
sg14
S'6.378'
p9761
sg16
g236
sg18
g3
sbtp9762
a(g186
g4
(g5
g6
Ntp9763
Rp9764
(dp9765
g10
S'dA'
p9766
sg12
S'12.164'
p9767
sg14
S'12.124'
p9768
sg16
g236
sg18
g186
sbtp9769
asS'e_p_cl'
p9770
(lp9771
(g186
g4
(g5
g6
Ntp9772
Rp9773
(dp9774
g10
g332
sg12
S'2.41'
p9775
sg14
S'2.398'
p9776
sg16
S'p_cl'
p9777
sg18
g186
sbtp9778
asS'iS_llA'
p9779
(lp9780
(g34
g4
(g5
g6
Ntp9781
Rp9782
(dp9783
g10
S'iS'
p9784
sg12
S'11.17'
p9785
sg14
S'10.996'
p9786
sg16
S'llA'
p9787
sg18
g34
sbtp9788
a(g215
g4
(g5
g6
Ntp9789
Rp9790
(dp9791
g10
S'iS'
p9792
sg12
S'6.576'
p9793
sg14
S'6.454'
p9794
sg16
S'llA'
p9795
sg18
g215
sbtp9796
asS'l_t_cl'
p9797
(lp9798
(g3
g4
(g5
g6
Ntp9799
Rp9800
(dp9801
g10
g273
sg12
S'11.282'
p9802
sg14
S'11.248'
p9803
sg16
S't_cl'
p9804
sg18
g3
sbtp9805
a(g34
g4
(g5
g6
Ntp9806
Rp9807
(dp9808
g10
g273
sg12
S'2.108'
p9809
sg14
S'2.072'
p9810
sg16
S't_cl'
p9811
sg18
g34
sbtp9812
a(g186
g4
(g5
g6
Ntp9813
Rp9814
(dp9815
g10
g273
sg12
S'12.3'
p9816
sg14
S'12.262'
p9817
sg16
S't_cl'
p9818
sg18
g186
sbtp9819
a(g223
g4
(g5
g6
Ntp9820
Rp9821
(dp9822
g10
g273
sg12
S'4.586'
p9823
sg14
S'4.556'
p9824
sg16
S't_cl'
p9825
sg18
g223
sbtp9826
asS'n_k_cl'
p9827
(lp9828
(g34
g4
(g5
g6
Ntp9829
Rp9830
(dp9831
g10
g1807
sg12
S'3.174'
p9832
sg14
S'3.148'
p9833
sg16
S'k_cl'
p9834
sg18
g34
sbtp9835
a(g34
g4
(g5
g6
Ntp9836
Rp9837
(dp9838
g10
g1807
sg12
S'10.69'
p9839
sg14
S'10.678'
p9840
sg16
S'k_cl'
p9841
sg18
g34
sbtp9842
a(g56
g4
(g5
g6
Ntp9843
Rp9844
(dp9845
g10
g1807
sg12
S'2.148'
p9846
sg14
S'2.136'
p9847
sg16
S'k_cl'
p9848
sg18
g56
sbtp9849
a(g186
g4
(g5
g6
Ntp9850
Rp9851
(dp9852
g10
g1807
sg12
S'3.422'
p9853
sg14
S'3.416'
p9854
sg16
S'k_cl'
p9855
sg18
g186
sbtp9856
a(g215
g4
(g5
g6
Ntp9857
Rp9858
(dp9859
g10
g1807
sg12
S'7.7'
p9860
sg14
S'7.688'
p9861
sg16
S'k_cl'
p9862
sg18
g215
sbtp9863
asS'm_p_cl'
p9864
(lp9865
(g71
g4
(g5
g6
Ntp9866
Rp9867
(dp9868
g10
g1501
sg12
S'2.762'
p9869
sg14
S'2.702'
p9870
sg16
S'p_cl'
p9871
sg18
g71
sbtp9872
a(g122
g4
(g5
g6
Ntp9873
Rp9874
(dp9875
g10
g1501
sg12
S'3.518'
p9876
sg14
S'3.488'
p9877
sg16
S'p_cl'
p9878
sg18
g122
sbtp9879
a(g122
g4
(g5
g6
Ntp9880
Rp9881
(dp9882
g10
g1501
sg12
S'4.938'
p9883
sg14
S'4.918'
p9884
sg16
S'p_cl'
p9885
sg18
g122
sbtp9886
a(g122
g4
(g5
g6
Ntp9887
Rp9888
(dp9889
g10
g1501
sg12
S'9.89'
p9890
sg14
S'9.862'
p9891
sg16
S'p_cl'
p9892
sg18
g122
sbtp9893
a(g186
g4
(g5
g6
Ntp9894
Rp9895
(dp9896
g10
g1501
sg12
S'6.46'
p9897
sg14
S'6.44'
p9898
sg16
S'p_cl'
p9899
sg18
g186
sbtp9900
a(g215
g4
(g5
g6
Ntp9901
Rp9902
(dp9903
g10
g1501
sg12
S'4.312'
p9904
sg14
S'4.304'
p9905
sg16
S'p_cl'
p9906
sg18
g215
sbtp9907
asS'dA_u'
p9908
(lp9909
(g71
g4
(g5
g6
Ntp9910
Rp9911
(dp9912
g10
S'dA'
p9913
sg12
S'3.284'
p9914
sg14
S'3.24'
p9915
sg16
g570
sg18
g71
sbtp9916
asS'l_eS'
p9917
(lp9918
(g3
g4
(g5
g6
Ntp9919
Rp9920
(dp9921
g10
g273
sg12
S'10.74'
p9922
sg14
S'10.71'
p9923
sg16
S'eS'
p9924
sg18
g3
sbtp9925
asS'iSV_sp'
p9926
(lp9927
(g122
g4
(g5
g6
Ntp9928
Rp9929
(dp9930
g10
S'iSV'
p9931
sg12
S'4.76'
p9932
sg14
S'4.76'
p9933
sg16
S'sp'
p9934
sg18
g122
sbtp9935
asS'sp_oS'
p9936
(lp9937
(g223
g4
(g5
g6
Ntp9938
Rp9939
(dp9940
g10
S'sp'
p9941
sg12
S'3.428'
p9942
sg14
S'3.346'
p9943
sg16
S'oS'
p9944
sg18
g223
sbtp9945
asS'l_p_cl'
p9946
(lp9947
(g56
g4
(g5
g6
Ntp9948
Rp9949
(dp9950
g10
g273
sg12
S'2.324'
p9951
sg14
S'2.318'
p9952
sg16
S'p_cl'
p9953
sg18
g56
sbtp9954
asS'aS_b_cl'
p9955
(lp9956
(g34
g4
(g5
g6
Ntp9957
Rp9958
(dp9959
g10
S'aS'
p9960
sg12
S'5.34'
p9961
sg14
S'5.286'
p9962
sg16
S'b_cl'
p9963
sg18
g34
sbtp9964
a(g34
g4
(g5
g6
Ntp9965
Rp9966
(dp9967
g10
S'aS'
p9968
sg12
S'6.712'
p9969
sg14
S'6.672'
p9970
sg16
S'b_cl'
p9971
sg18
g34
sbtp9972
a(g122
g4
(g5
g6
Ntp9973
Rp9974
(dp9975
g10
S'aS'
p9976
sg12
S'3.112'
p9977
sg14
S'3.09'
p9978
sg16
S'b_cl'
p9979
sg18
g122
sbtp9980
asS'iS_n'
p9981
(lp9982
(g3
g4
(g5
g6
Ntp9983
Rp9984
(dp9985
g10
S'iS'
p9986
sg12
S'10.024'
p9987
sg14
S'9.998'
p9988
sg16
g1807
sg18
g3
sbtp9989
a(g122
g4
(g5
g6
Ntp9990
Rp9991
(dp9992
g10
S'iS'
p9993
sg12
S'9.056'
p9994
sg14
S'9.008'
p9995
sg16
g1807
sg18
g122
sbtp9996
a(g186
g4
(g5
g6
Ntp9997
Rp9998
(dp9999
g10
S'iS'
p10000
sg12
S'12.466'
p10001
sg14
S'12.454'
p10002
sg16
g1807
sg18
g186
sbtp10003
asS'd_aS'
p10004
(lp10005
(g56
g4
(g5
g6
Ntp10006
Rp10007
(dp10008
g10
g546
sg12
S'4.738'
p10009
sg14
S'4.554'
p10010
sg16
S'aS'
p10011
sg18
g56
sbtp10012
asS'n_uS'
p10013
(lp10014
(g71
g4
(g5
g6
Ntp10015
Rp10016
(dp10017
g10
g1807
sg12
S'4.112'
p10018
sg14
S'4.008'
p10019
sg16
S'uS'
p10020
sg18
g71
sbtp10021
asS'iS_rA'
p10022
(lp10023
(g34
g4
(g5
g6
Ntp10024
Rp10025
(dp10026
g10
S'iS'
p10027
sg12
S'5.774'
p10028
sg14
S'5.728'
p10029
sg16
S'rA'
p10030
sg18
g34
sbtp10031
asS't_eS'
p10032
(lp10033
(g122
g4
(g5
g6
Ntp10034
Rp10035
(dp10036
g10
g670
sg12
S'10.28'
p10037
sg14
S'10.232'
p10038
sg16
S'eS'
p10039
sg18
g122
sbtp10040
asS'x_eS'
p10041
(lp10042
(g93
g4
(g5
g6
Ntp10043
Rp10044
(dp10045
g10
g1944
sg12
S'4.714'
p10046
sg14
S'4.618'
p10047
sg16
S'eS'
p10048
sg18
g93
sbtp10049
asS'eS_m'
p10050
(lp10051
(g93
g4
(g5
g6
Ntp10052
Rp10053
(dp10054
g10
S'eS'
p10055
sg12
S'4.418'
p10056
sg14
S'4.348'
p10057
sg16
g1501
sg18
g93
sbtp10058
asS'eS_l'
p10059
(lp10060
(g122
g4
(g5
g6
Ntp10061
Rp10062
(dp10063
g10
S'eS'
p10064
sg12
S'8.454'
p10065
sg14
S'8.318'
p10066
sg16
g273
sg18
g122
sbtp10067
asS'k_s'
p10068
(lp10069
(g3
g4
(g5
g6
Ntp10070
Rp10071
(dp10072
g10
g1683
sg12
S'8.534'
p10073
sg14
S'8.404'
p10074
sg16
g1596
sg18
g3
sbtp10075
a(g93
g4
(g5
g6
Ntp10076
Rp10077
(dp10078
g10
g1683
sg12
S'5.978'
p10079
sg14
S'5.932'
p10080
sg16
g1596
sg18
g93
sbtp10081
a(g186
g4
(g5
g6
Ntp10082
Rp10083
(dp10084
g10
g1683
sg12
S'3.046'
p10085
sg14
S'2.942'
p10086
sg16
g1596
sg18
g186
sbtp10087
asS'k_r'
p10088
(lp10089
(g71
g4
(g5
g6
Ntp10090
Rp10091
(dp10092
g10
g1683
sg12
S'5.81'
p10093
sg14
S'5.74'
p10094
sg16
g290
sg18
g71
sbtp10095
asS'k_u'
p10096
(lp10097
(g34
g4
(g5
g6
Ntp10098
Rp10099
(dp10100
g10
g1683
sg12
S'10.822'
p10101
sg14
S'10.796'
p10102
sg16
g570
sg18
g34
sbtp10103
asS'eS_h'
p10104
(lp10105
(g93
g4
(g5
g6
Ntp10106
Rp10107
(dp10108
g10
S'eS'
p10109
sg12
S'2.498'
p10110
sg14
S'2.458'
p10111
sg16
g1511
sg18
g93
sbtp10112
a(g186
g4
(g5
g6
Ntp10113
Rp10114
(dp10115
g10
S'eS'
p10116
sg12
S'2.272'
p10117
sg14
S'2.224'
p10118
sg16
g1511
sg18
g186
sbtp10119
asS'k_l'
p10120
(lp10121
(g56
g4
(g5
g6
Ntp10122
Rp10123
(dp10124
g10
g1683
sg12
S'13.278'
p10125
sg14
S'13.236'
p10126
sg16
g273
sg18
g56
sbtp10127
a(g122
g4
(g5
g6
Ntp10128
Rp10129
(dp10130
g10
g1683
sg12
S'8.94'
p10131
sg14
S'8.898'
p10132
sg16
g273
sg18
g122
sbtp10133
asS'k_o'
p10134
(lp10135
(g34
g4
(g5
g6
Ntp10136
Rp10137
(dp10138
g10
g1683
sg12
S'2.74'
p10139
sg14
S'2.678'
p10140
sg16
g429
sg18
g34
sbtp10141
a(g34
g4
(g5
g6
Ntp10142
Rp10143
(dp10144
g10
g1683
sg12
S'3.29'
p10145
sg14
S'3.252'
p10146
sg16
g429
sg18
g34
sbtp10147
a(g34
g4
(g5
g6
Ntp10148
Rp10149
(dp10150
g10
g1683
sg12
S'9.46'
p10151
sg14
S'9.42'
p10152
sg16
g429
sg18
g34
sbtp10153
a(g34
g4
(g5
g6
Ntp10154
Rp10155
(dp10156
g10
g1683
sg12
S'10.11'
p10157
sg14
S'10.052'
p10158
sg16
g429
sg18
g34
sbtp10159
a(g93
g4
(g5
g6
Ntp10160
Rp10161
(dp10162
g10
g1683
sg12
S'6.59'
p10163
sg14
S'6.546'
p10164
sg16
g429
sg18
g93
sbtp10165
a(g122
g4
(g5
g6
Ntp10166
Rp10167
(dp10168
g10
g1683
sg12
S'2.778'
p10169
sg14
S'2.7'
p10170
sg16
g429
sg18
g122
sbtp10171
a(g122
g4
(g5
g6
Ntp10172
Rp10173
(dp10174
g10
g1683
sg12
S'3.43'
p10175
sg14
S'3.396'
p10176
sg16
g429
sg18
g122
sbtp10177
a(g122
g4
(g5
g6
Ntp10178
Rp10179
(dp10180
g10
g1683
sg12
S'7.528'
p10181
sg14
S'7.46'
p10182
sg16
g429
sg18
g122
sbtp10183
a(g122
g4
(g5
g6
Ntp10184
Rp10185
(dp10186
g10
g1683
sg12
S'9.812'
p10187
sg14
S'9.768'
p10188
sg16
g429
sg18
g122
sbtp10189
a(g122
g4
(g5
g6
Ntp10190
Rp10191
(dp10192
g10
g1683
sg12
S'10.578'
p10193
sg14
S'10.508'
p10194
sg16
g429
sg18
g122
sbtp10195
a(g215
g4
(g5
g6
Ntp10196
Rp10197
(dp10198
g10
g1683
sg12
S'8.162'
p10199
sg14
S'8.088'
p10200
sg16
g429
sg18
g215
sbtp10201
a(g223
g4
(g5
g6
Ntp10202
Rp10203
(dp10204
g10
g1683
sg12
S'2.826'
p10205
sg14
S'2.772'
p10206
sg16
g429
sg18
g223
sbtp10207
asS'eS_r'
p10208
(lp10209
(g34
g4
(g5
g6
Ntp10210
Rp10211
(dp10212
g10
S'eS'
p10213
sg12
S'9.984'
p10214
sg14
S'9.928'
p10215
sg16
g290
sg18
g34
sbtp10216
a(g56
g4
(g5
g6
Ntp10217
Rp10218
(dp10219
g10
S'eS'
p10220
sg12
S'2.626'
p10221
sg14
S'2.62'
p10222
sg16
g290
sg18
g56
sbtp10223
a(g122
g4
(g5
g6
Ntp10224
Rp10225
(dp10226
g10
S'eS'
p10227
sg12
S'10.304'
p10228
sg14
S'10.28'
p10229
sg16
g290
sg18
g122
sbtp10230
asS'k_a'
p10231
(lp10232
(g3
g4
(g5
g6
Ntp10233
Rp10234
(dp10235
g10
g1683
sg12
S'9.836'
p10236
sg14
S'9.766'
p10237
sg16
g236
sg18
g3
sbtp10238
a(g93
g4
(g5
g6
Ntp10239
Rp10240
(dp10241
g10
g1683
sg12
S'3.826'
p10242
sg14
S'3.544'
p10243
sg16
g236
sg18
g93
sbtp10244
a(g186
g4
(g5
g6
Ntp10245
Rp10246
(dp10247
g10
g1683
sg12
S'11.074'
p10248
sg14
S'10.972'
p10249
sg16
g236
sg18
g186
sbtp10250
a(g215
g4
(g5
g6
Ntp10251
Rp10252
(dp10253
g10
g1683
sg12
S'4.264'
p10254
sg14
S'4.208'
p10255
sg16
g236
sg18
g215
sbtp10256
a(g215
g4
(g5
g6
Ntp10257
Rp10258
(dp10259
g10
g1683
sg12
S'6.286'
p10260
sg14
S'6.256'
p10261
sg16
g236
sg18
g215
sbtp10262
asS'eS_eS'
p10263
(lp10264
(g93
g4
(g5
g6
Ntp10265
Rp10266
(dp10267
g10
S'eS'
p10268
sg12
S'4.348'
p10269
sg14
S'4.252'
p10270
sg16
S'eS'
p10271
sg18
g93
sbtp10272
asS'k_e'
p10273
(lp10274
(g93
g4
(g5
g6
Ntp10275
Rp10276
(dp10277
g10
g1683
sg12
S'5.33'
p10278
sg14
S'5.284'
p10279
sg16
g332
sg18
g93
sbtp10280
a(g215
g4
(g5
g6
Ntp10281
Rp10282
(dp10283
g10
g1683
sg12
S'7.816'
p10284
sg14
S'7.774'
p10285
sg16
g332
sg18
g215
sbtp10286
asS'eS_x'
p10287
(lp10288
(g3
g4
(g5
g6
Ntp10289
Rp10290
(dp10291
g10
S'eS'
p10292
sg12
S'10.83'
p10293
sg14
S'10.74'
p10294
sg16
g1944
sg18
g3
sbtp10295
asS'h_iS'
p10296
(lp10297
(g3
g4
(g5
g6
Ntp10298
Rp10299
(dp10300
g10
g1511
sg12
S'5.49'
p10301
sg14
S'5.45'
p10302
sg16
S'iS'
p10303
sg18
g3
sbtp10304
asS'h_t_cl'
p10305
(lp10306
(g34
g4
(g5
g6
Ntp10307
Rp10308
(dp10309
g10
g1511
sg12
S'5.118'
p10310
sg14
S'5.106'
p10311
sg16
S't_cl'
p10312
sg18
g34
sbtp10313
a(g56
g4
(g5
g6
Ntp10314
Rp10315
(dp10316
g10
g1511
sg12
S'7.02'
p10317
sg14
S'7.01'
p10318
sg16
S't_cl'
p10319
sg18
g56
sbtp10320
a(g56
g4
(g5
g6
Ntp10321
Rp10322
(dp10323
g10
g1511
sg12
S'7.732'
p10324
sg14
S'7.718'
p10325
sg16
S't_cl'
p10326
sg18
g56
sbtp10327
a(g93
g4
(g5
g6
Ntp10328
Rp10329
(dp10330
g10
g1511
sg12
S'2.514'
p10331
sg14
S'2.498'
p10332
sg16
S't_cl'
p10333
sg18
g93
sbtp10334
a(g122
g4
(g5
g6
Ntp10335
Rp10336
(dp10337
g10
g1511
sg12
S'6.536'
p10338
sg14
S'6.52'
p10339
sg16
S't_cl'
p10340
sg18
g122
sbtp10341
a(g122
g4
(g5
g6
Ntp10342
Rp10343
(dp10344
g10
g1511
sg12
S'12.128'
p10345
sg14
S'12.11'
p10346
sg16
S't_cl'
p10347
sg18
g122
sbtp10348
a(g186
g4
(g5
g6
Ntp10349
Rp10350
(dp10351
g10
g1511
sg12
S'2.282'
p10352
sg14
S'2.272'
p10353
sg16
S't_cl'
p10354
sg18
g186
sbtp10355
a(g186
g4
(g5
g6
Ntp10356
Rp10357
(dp10358
g10
g1511
sg12
S'3.098'
p10359
sg14
S'3.078'
p10360
sg16
S't_cl'
p10361
sg18
g186
sbtp10362
a(g215
g4
(g5
g6
Ntp10363
Rp10364
(dp10365
g10
g1511
sg12
S'6.348'
p10366
sg14
S'6.338'
p10367
sg16
S't_cl'
p10368
sg18
g215
sbtp10369
a(g223
g4
(g5
g6
Ntp10370
Rp10371
(dp10372
g10
g1511
sg12
S'6.512'
p10373
sg14
S'6.466'
p10374
sg16
S't_cl'
p10375
sg18
g223
sbtp10376
asS'ch_iS'
p10377
(lp10378
(g34
g4
(g5
g6
Ntp10379
Rp10380
(dp10381
g10
S'ch'
p10382
sg12
S'10.996'
p10383
sg14
S'10.978'
p10384
sg16
S'iS'
p10385
sg18
g34
sbtp10386
asS'g_cl_g'
p10387
(lp10388
(g71
g4
(g5
g6
Ntp10389
Rp10390
(dp10391
g10
S'g_cl'
p10392
sg12
S'2.584'
p10393
sg14
S'2.576'
p10394
sg16
g5631
sg18
g71
sbtp10395
a(g71
g4
(g5
g6
Ntp10396
Rp10397
(dp10398
g10
S'g_cl'
p10399
sg12
S'4.65'
p10400
sg14
S'4.638'
p10401
sg16
g5631
sg18
g71
sbtp10402
a(g93
g4
(g5
g6
Ntp10403
Rp10404
(dp10405
g10
S'g_cl'
p10406
sg12
S'3.224'
p10407
sg14
S'3.208'
p10408
sg16
g5631
sg18
g93
sbtp10409
a(g93
g4
(g5
g6
Ntp10410
Rp10411
(dp10412
g10
S'g_cl'
p10413
sg12
S'6.2'
p10414
sg14
S'6.166'
p10415
sg16
g5631
sg18
g93
sbtp10416
a(g122
g4
(g5
g6
Ntp10417
Rp10418
(dp10419
g10
S'g_cl'
p10420
sg12
S'10.888'
p10421
sg14
S'10.84'
p10422
sg16
g5631
sg18
g122
sbtp10423
a(g215
g4
(g5
g6
Ntp10424
Rp10425
(dp10426
g10
S'g_cl'
p10427
sg12
S'5.278'
p10428
sg14
S'5.272'
p10429
sg16
g5631
sg18
g215
sbtp10430
a(g215
g4
(g5
g6
Ntp10431
Rp10432
(dp10433
g10
S'g_cl'
p10434
sg12
S'8.368'
p10435
sg14
S'8.324'
p10436
sg16
g5631
sg18
g215
sbtp10437
a(g223
g4
(g5
g6
Ntp10438
Rp10439
(dp10440
g10
S'g_cl'
p10441
sg12
S'4.29'
p10442
sg14
S'4.278'
p10443
sg16
g5631
sg18
g223
sbtp10444
asS'sil_p_cl'
p10445
(lp10446
(g122
g4
(g5
g6
Ntp10447
Rp10448
(dp10449
g10
S'sil'
p10450
sg12
S'7.214'
p10451
sg14
S'7.208'
p10452
sg16
S'p_cl'
p10453
sg18
g122
sbtp10454
asS'iS_gA'
p10455
(lp10456
(g186
g4
(g5
g6
Ntp10457
Rp10458
(dp10459
g10
S'iS'
p10460
sg12
S'10.452'
p10461
sg14
S'10.408'
p10462
sg16
S'gA'
p10463
sg18
g186
sbtp10464
asS'o_g_cl'
p10465
(lp10466
(g71
g4
(g5
g6
Ntp10467
Rp10468
(dp10469
g10
g429
sg12
S'2.576'
p10470
sg14
S'2.57'
p10471
sg16
S'g_cl'
p10472
sg18
g71
sbtp10473
a(g71
g4
(g5
g6
Ntp10474
Rp10475
(dp10476
g10
g429
sg12
S'4.638'
p10477
sg14
S'4.632'
p10478
sg16
S'g_cl'
p10479
sg18
g71
sbtp10480
a(g93
g4
(g5
g6
Ntp10481
Rp10482
(dp10483
g10
g429
sg12
S'3.208'
p10484
sg14
S'3.184'
p10485
sg16
S'g_cl'
p10486
sg18
g93
sbtp10487
a(g223
g4
(g5
g6
Ntp10488
Rp10489
(dp10490
g10
g429
sg12
S'4.278'
p10491
sg14
S'4.27'
p10492
sg16
S'g_cl'
p10493
sg18
g223
sbtp10494
asS'd_sp'
p10495
(lp10496
(g56
g4
(g5
g6
Ntp10497
Rp10498
(dp10499
g10
g546
sg12
S'3.538'
p10500
sg14
S'3.538'
p10501
sg16
S'sp'
p10502
sg18
g56
sbtp10503
asS'rA_o'
p10504
(lp10505
(g56
g4
(g5
g6
Ntp10506
Rp10507
(dp10508
g10
S'rA'
p10509
sg12
S'14.816'
p10510
sg14
S'14.73'
p10511
sg16
g429
sg18
g56
sbtp10512
a(g122
g4
(g5
g6
Ntp10513
Rp10514
(dp10515
g10
S'rA'
p10516
sg12
S'7.402'
p10517
sg14
S'7.38'
p10518
sg16
g429
sg18
g122
sbtp10519
a(g186
g4
(g5
g6
Ntp10520
Rp10521
(dp10522
g10
S'rA'
p10523
sg12
S'4.64'
p10524
sg14
S'4.616'
p10525
sg16
g429
sg18
g186
sbtp10526
a(g186
g4
(g5
g6
Ntp10527
Rp10528
(dp10529
g10
S'rA'
p10530
sg12
S'7.654'
p10531
sg14
S'7.61'
p10532
sg16
g429
sg18
g186
sbtp10533
a(g186
g4
(g5
g6
Ntp10534
Rp10535
(dp10536
g10
S'rA'
p10537
sg12
S'12.932'
p10538
sg14
S'12.906'
p10539
sg16
g429
sg18
g186
sbtp10540
asS'iS_a'
p10541
(lp10542
(g3
g4
(g5
g6
Ntp10543
Rp10544
(dp10545
g10
S'iS'
p10546
sg12
S'7.14'
p10547
sg14
S'7.134'
p10548
sg16
g236
sg18
g3
sbtp10549
asS'g_iS'
p10550
(lp10551
(g93
g4
(g5
g6
Ntp10552
Rp10553
(dp10554
g10
g5631
sg12
S'6.334'
p10555
sg14
S'6.2'
p10556
sg16
S'iS'
p10557
sg18
g93
sbtp10558
asS'eS_sp'
p10559
(lp10560
(g56
g4
(g5
g6
Ntp10561
Rp10562
(dp10563
g10
S'eS'
p10564
sg12
S'9.984'
p10565
sg14
S'9.84'
p10566
sg16
S'sp'
p10567
sg18
g56
sbtp10568
a(g93
g4
(g5
g6
Ntp10569
Rp10570
(dp10571
g10
S'eS'
p10572
sg12
S'4.826'
p10573
sg14
S'4.714'
p10574
sg16
S'sp'
p10575
sg18
g93
sbtp10576
asS'iS_h'
p10577
(lp10578
(g122
g4
(g5
g6
Ntp10579
Rp10580
(dp10581
g10
S'iS'
p10582
sg12
S'6.52'
p10583
sg14
S'6.474'
p10584
sg16
g1511
sg18
g122
sbtp10585
a(g122
g4
(g5
g6
Ntp10586
Rp10587
(dp10588
g10
S'iS'
p10589
sg12
S'12.11'
p10590
sg14
S'12.06'
p10591
sg16
g1511
sg18
g122
sbtp10592
a(g186
g4
(g5
g6
Ntp10593
Rp10594
(dp10595
g10
S'iS'
p10596
sg12
S'2.756'
p10597
sg14
S'2.67'
p10598
sg16
g1511
sg18
g186
sbtp10599
a(g186
g4
(g5
g6
Ntp10600
Rp10601
(dp10602
g10
S'iS'
p10603
sg12
S'3.078'
p10604
sg14
S'3.072'
p10605
sg16
g1511
sg18
g186
sbtp10606
a(g223
g4
(g5
g6
Ntp10607
Rp10608
(dp10609
g10
S'iS'
p10610
sg12
S'6.466'
p10611
sg14
S'6.444'
p10612
sg16
g1511
sg18
g223
sbtp10613
asS'iS_m'
p10614
(lp10615
(g186
g4
(g5
g6
Ntp10616
Rp10617
(dp10618
g10
S'iS'
p10619
sg12
S'9.272'
p10620
sg14
S'9.192'
p10621
sg16
g1501
sg18
g186
sbtp10622
asS'iS_l'
p10623
(lp10624
(g56
g4
(g5
g6
Ntp10625
Rp10626
(dp10627
g10
S'iS'
p10628
sg12
S'4.998'
p10629
sg14
S'4.926'
p10630
sg16
g273
sg18
g56
sbtp10631
a(g56
g4
(g5
g6
Ntp10632
Rp10633
(dp10634
g10
S'iS'
p10635
sg12
S'7.324'
p10636
sg14
S'7.28'
p10637
sg16
g273
sg18
g56
sbtp10638
a(g186
g4
(g5
g6
Ntp10639
Rp10640
(dp10641
g10
S'iS'
p10642
sg12
S'13.168'
p10643
sg14
S'13.154'
p10644
sg16
g273
sg18
g186
sbtp10645
asS'iS_o'
p10646
(lp10647
(g34
g4
(g5
g6
Ntp10648
Rp10649
(dp10650
g10
S'iS'
p10651
sg12
S'2.46'
p10652
sg14
S'2.454'
p10653
sg16
g429
sg18
g34
sbtp10654
a(g93
g4
(g5
g6
Ntp10655
Rp10656
(dp10657
g10
S'iS'
p10658
sg12
S'5.718'
p10659
sg14
S'5.708'
p10660
sg16
g429
sg18
g93
sbtp10661
asS'aS_dA'
p10662
(lp10663
(g34
g4
(g5
g6
Ntp10664
Rp10665
(dp10666
g10
S'aS'
p10667
sg12
S'3.79'
p10668
sg14
S'3.784'
p10669
sg16
S'dA'
p10670
sg18
g34
sbtp10671
a(g34
g4
(g5
g6
Ntp10672
Rp10673
(dp10674
g10
S'aS'
p10675
sg12
S'10.408'
p10676
sg14
S'10.402'
p10677
sg16
S'dA'
p10678
sg18
g34
sbtp10679
a(g56
g4
(g5
g6
Ntp10680
Rp10681
(dp10682
g10
S'aS'
p10683
sg12
S'4.744'
p10684
sg14
S'4.738'
p10685
sg16
S'dA'
p10686
sg18
g56
sbtp10687
a(g186
g4
(g5
g6
Ntp10688
Rp10689
(dp10690
g10
S'aS'
p10691
sg12
S'12.124'
p10692
sg14
S'12.118'
p10693
sg16
S'dA'
p10694
sg18
g186
sbtp10695
a(g215
g4
(g5
g6
Ntp10696
Rp10697
(dp10698
g10
S'aS'
p10699
sg12
S'4.91'
p10700
sg14
S'4.904'
p10701
sg16
S'dA'
p10702
sg18
g215
sbtp10703
a(g215
g4
(g5
g6
Ntp10704
Rp10705
(dp10706
g10
S'aS'
p10707
sg12
S'7.526'
p10708
sg14
S'7.272'
p10709
sg16
S'dA'
p10710
sg18
g215
sbtp10711
asS's_uS'
p10712
(lp10713
(g3
g4
(g5
g6
Ntp10714
Rp10715
(dp10716
g10
g1596
sg12
S'3.346'
p10717
sg14
S'3.278'
p10718
sg16
S'uS'
p10719
sg18
g3
sbtp10720
a(g71
g4
(g5
g6
Ntp10721
Rp10722
(dp10723
g10
g1596
sg12
S'2.082'
p10724
sg14
S'2.076'
p10725
sg16
S'uS'
p10726
sg18
g71
sbtp10727
asS'f_aS'
p10728
(lp10729
(g223
g4
(g5
g6
Ntp10730
Rp10731
(dp10732
g10
g2853
sg12
S'5.102'
p10733
sg14
S'5.046'
p10734
sg16
S'aS'
p10735
sg18
g223
sbtp10736
asS'rr_oS'
p10737
(lp10738
(g71
g4
(g5
g6
Ntp10739
Rp10740
(dp10741
g10
S'rr'
p10742
sg12
S'5.124'
p10743
sg14
S'5.082'
p10744
sg16
S'oS'
p10745
sg18
g71
sbtp10746
asS'oS_rA'
p10747
(lp10748
(g186
g4
(g5
g6
Ntp10749
Rp10750
(dp10751
g10
S'oS'
p10752
sg12
S'4.616'
p10753
sg14
S'4.578'
p10754
sg16
S'rA'
p10755
sg18
g186
sbtp10756
a(g186
g4
(g5
g6
Ntp10757
Rp10758
(dp10759
g10
S'oS'
p10760
sg12
S'7.61'
p10761
sg14
S'7.568'
p10762
sg16
S'rA'
p10763
sg18
g186
sbtp10764
a(g223
g4
(g5
g6
Ntp10765
Rp10766
(dp10767
g10
S'oS'
p10768
sg12
S'5.98'
p10769
sg14
S'5.91'
p10770
sg16
S'rA'
p10771
sg18
g223
sbtp10772
as.